(lp0
(lp1
((F0.0
F0.0
tp2
(F0.00199985504150391
F0.0
tp3
(F0.00400018692016602
F0.0
tp4
(F0.00600004196166992
F0.0
tp5
(F0.00799989700317383
F0.0
tp6
(F0.0100002288818359
F0.0
tp7
(F0.0120000839233398
F0.0
tp8
(F0.0139999389648438
F0.0
tp9
(F0.0159997940063477
F0.0
tp10
(F0.0180001258850098
F0.0
tp11
(F0.0199999809265137
F0.0
tp12
(F0.0219998359680176
F0.0
tp13
(F0.0240001678466797
F0.0
tp14
(F0.0260000228881836
F0.0
tp15
(F0.0279998779296875
F0.0
tp16
(F0.0300002098083496
F0.0
tp17
(F0.0320000648498535
F0.0
tp18
(F0.0339999198913574
F0.0
tp19
(F0.0359997749328613
F0.0
tp20
(F0.0380001068115234
F0.0
tp21
(F0.0399999618530273
F0.0
tp22
(F0.0419998168945313
F0.0
tp23
(F0.0440001487731934
F0.0
tp24
(F0.0460000038146973
F0.0
tp25
(F0.0479998588562012
F0.0
tp26
(F0.0500001907348633
F0.0
tp27
(F0.0520000457763672
F0.0
tp28
(F0.0539999008178711
F0.0
tp29
(F0.0560002326965332
F0.0
tp30
(F0.0580000877380371
F0.0
tp31
(F0.059999942779541
F0.0
tp32
(F0.0619997978210449
F0.0
tp33
(F0.064000129699707
F0.0
tp34
(F0.0659999847412109
F0.0
tp35
(F0.0679998397827148
F0.0
tp36
(F0.070000171661377
F0.0
tp37
(F0.0720000267028809
F0.0
tp38
(F0.0739998817443848
F0.0
tp39
(F0.0760002136230469
F0.0
tp40
(F0.0780000686645508
F0.0
tp41
(F0.0799999237060547
F0.0
tp42
(F0.0819997787475586
F0.0
tp43
(F0.0840001106262207
F0.0
tp44
(F0.0859999656677246
F0.0
tp45
(F0.0879998207092285
F0.0
tp46
(F0.0900001525878906
F0.0
tp47
(F0.0920000076293945
F0.0
tp48
(F0.0939998626708984
F0.0
tp49
(F0.0960001945495605
F0.0
tp50
(F0.0980000495910645
F0.0
tp51
(F0.0999999046325684
F0.0
tp52
(F0.10200023651123
F0.0
tp53
(F0.104000091552734
F0.0
tp54
(F0.105999946594238
F0.0
tp55
(F0.107999801635742
F0.0
tp56
(F0.110000133514404
F0.0
tp57
(F0.111999988555908
F0.0
tp58
(F0.113999843597412
F0.0
tp59
(F0.116000175476074
F0.0
tp60
(F0.118000030517578
F0.0
tp61
(F0.119999885559082
F0.0
tp62
tp63
a((F0.0
F6.78796817806131e+15
tp64
(F0.00199985504150391
F7.01087375949824e+15
tp65
(F0.00400018692016602
F7.4253767582679e+15
tp66
(F0.00600004196166992
F7.8695343587328e+15
tp67
(F0.00799989700317383
F8.42743879932314e+15
tp68
(F0.0100002288818359
F9.42859997098803e+15
tp69
(F0.0120000839233398
F1.08001322787144e+16
tp70
(F0.0139999389648438
F1.28638243359949e+16
tp71
(F0.0159997940063477
F1.49191777142702e+16
tp72
(F0.0180001258850098
F1.64200400772137e+16
tp73
(F0.0199999809265137
F1.69732318649385e+16
tp74
(F0.0219998359680176
F1.70595134629478e+16
tp75
(F0.0240001678466797
F1.84869436962898e+16
tp76
(F0.0260000228881836
F3.33285124252631e+16
tp77
(F0.0279998779296875
F3.41406134315254e+16
tp78
(F0.0300002098083496
F3.33623245553009e+16
tp79
(F0.0320000648498535
F2.93789678740439e+16
tp80
(F0.0320000648498535
F2.93710994939576e+16
tp81
(F0.0339999198913574
F2.65509681328292e+16
tp82
(F0.0359997749328613
F2.36542875695841e+16
tp83
(F0.0380001068115234
F2.10998901300265e+16
tp84
(F0.0399999618530273
F1.87641881302139e+16
tp85
(F0.0419998168945313
F1.65274292919992e+16
tp86
(F0.0440001487731934
F1.4844023302783e+16
tp87
(F0.0460000038146973
F1.34866472072643e+16
tp88
(F0.0479998588562012
F1.23717424166994e+16
tp89
(F0.0500001907348633
F1.13836637154181e+16
tp90
(F0.0520000457763672
F1.03958190898545e+16
tp91
(F0.0539999008178711
F9.30056592215245e+15
tp92
(F0.0560002326965332
F8.44402757363302e+15
tp93
(F0.0580000877380371
F7.8525826596864e+15
tp94
(F0.059999942779541
F7.26113720886886e+15
tp95
(F0.0619997978210449
F6.66969229492224e+15
tp96
(F0.064000129699707
F6.08149706060595e+15
tp97
(F0.0659999847412109
F5.62668686750515e+15
tp98
(F0.0679998397827148
F5.27000164473242e+15
tp99
(F0.070000171661377
F4.91288585148826e+15
tp100
(F0.0720000267028809
F4.55584844139725e+15
tp101
(F0.0739998817443848
F4.19881156817715e+15
tp102
(F0.0760002136230469
F3.88394348917555e+15
tp103
(F0.0780000686645508
F3.68958091821056e+15
tp104
(F0.0799999237060547
F3.4743509802025e+15
tp105
(F0.0819997787475586
F3.25380065145651e+15
tp106
(F0.0840001106262207
F3.03319824623206e+15
tp107
(F0.0859999656677246
F2.8332489965568e+15
tp108
(F0.0879998207092285
F2.70193896141619e+15
tp109
(F0.0900001525878906
F2.57059778776269e+15
tp110
(F0.0920000076293945
F2.43928775262208e+15
tp111
(F0.0939998626708984
F2.30797798591693e+15
tp112
(F0.0960001945495605
F2.17663654382797e+15
tp113
(F0.0980000495910645
F2.03163979009229e+15
tp114
(F0.0999999046325684
F1.88397035873894e+15
tp115
(F0.10200023651123
F1.74870116905779e+15
tp116
(F0.104000091552734
F1.68760566192538e+15
tp117
(F0.105999946594238
F1.62651028901069e+15
tp118
(F0.107999801635742
F1.565414916096e+15
tp119
(F0.110000133514404
F1.50430491344896e+15
tp120
(F0.111999988555908
F1.44320954053427e+15
tp121
(F0.113999843597412
F1.38211416761958e+15
tp122
(F0.116000175476074
F1.32100416497254e+15
tp123
(F0.118000030517578
F1.263206924288e+15
tp124
(F0.119999885559082
F1.21529374552883e+15
tp125
tp126
a((F0.0
F1.31711324672492e+16
tp127
(F0.00199985504150391
F1.36195345691443e+16
tp128
(F0.00400018692016602
F1.44770988779766e+16
tp129
(F0.00600004196166992
F1.54775868135178e+16
tp130
(F0.00799989700317383
F1.67668780137185e+16
tp131
(F0.0100002288818359
F1.89017451952865e+16
tp132
(F0.0100002288818359
F1.89024173576684e+16
tp133
(F0.0120000839233398
F2.17194864071148e+16
tp134
(F0.0139999389648438
F2.56636772815995e+16
tp135
(F0.0159997940063477
F2.93461435864842e+16
tp136
(F0.0180001258850098
F3.18133252726456e+16
tp137
(F0.0199999809265137
F3.25442578394644e+16
tp138
(F0.0219998359680176
F3.38103175615611e+16
tp139
(F0.0240001678466797
F3.74141344253215e+16
tp140
(F0.0260000228881836
F6.28222074657178e+16
tp141
(F0.0279998779296875
F6.50898857734963e+16
tp142
(F0.0300002098083496
F6.43308104334705e+16
tp143
(F0.0320000648498535
F5.70323295577047e+16
tp144
(F0.0320000648498535
F5.70179156474593e+16
tp145
(F0.0339999198913574
F5.15176903338885e+16
tp146
(F0.0359997749328613
F4.58690395405025e+16
tp147
(F0.0380001068115234
F4.08794643635896e+16
tp148
(F0.0399999618530273
F3.63325156313006e+16
tp149
(F0.0419998168945313
F3.19681073040589e+16
tp150
(F0.0440001487731934
F2.87035971516498e+16
tp151
(F0.0460000038146973
F2.60693992197325e+16
tp152
(F0.0479998588562012
F2.39045188067e+16
tp153
(F0.0500001907348633
F2.19914566211994e+16
tp154
(F0.0520000457763672
F2.00788518497157e+16
tp155
(F0.0539999008178711
F1.79547983220572e+16
tp156
(F0.0560002326965332
F1.62954162324111e+16
tp157
(F0.0580000877380371
F1.51523654474138e+16
tp158
(F0.059999942779541
F1.40093146624164e+16
tp159
(F0.0619997978210449
F1.2866263877419e+16
tp160
(F0.064000129699707
F1.17293892553933e+16
tp161
(F0.0659999847412109
F1.08501493203599e+16
tp162
(F0.0679998397827148
F1.01615404350177e+16
tp163
(F0.070000171661377
F9.47218100414054e+15
tp164
(F0.0720000267028809
F8.78297458147328e+15
tp165
(F0.0739998817443848
F8.09376815880602e+15
tp166
(F0.0760002136230469
F7.48605122438758e+15
tp167
(F0.0780000686645508
F7.11120526927462e+15
tp168
(F0.0799999237060547
F6.69596353613005e+15
tp169
(F0.0819997787475586
F6.27042193453875e+15
tp170
(F0.0840001106262207
F5.84477886434509e+15
tp171
(F0.0859999656677246
F5.45904516713677e+15
tp172
(F0.0879998207092285
F5.20594811309261e+15
tp173
(F0.0900001525878906
F4.95279039263539e+15
tp174
(F0.0920000076293945
F4.69969280172032e+15
tp175
(F0.0939998626708984
F4.44659574767616e+15
tp176
(F0.0960001945495605
F4.19343802721894e+15
tp177
(F0.0980000495910645
F3.91391994498253e+15
tp178
(F0.0999999046325684
F3.62924333858816e+15
tp179
(F0.10200023651123
F3.36848164696883e+15
tp180
(F0.104000091552734
F3.25077028359373e+15
tp181
(F0.105999946594238
F3.13305918865408e+15
tp182
(F0.107999801635742
F3.01534809371443e+15
tp183
(F0.110000133514404
F2.8976088130519e+15
tp184
(F0.111999988555908
F2.77989771811226e+15
tp185
(F0.113999843597412
F2.66218662317261e+15
tp186
(F0.116000175476074
F2.54444734251008e+15
tp187
(F0.118000030517578
F2.43309118855578e+15
tp188
(F0.119999885559082
F2.34077891959194e+15
tp189
tp190
a((F0.0
F1.87511937066598e+16
tp191
(F0.00199985504150391
F1.94347227194327e+16
tp192
(F0.00400018692016602
F2.0782846381654e+16
tp193
(F0.00600004196166992
F2.24828889266913e+16
tp194
(F0.00799989700317383
F2.47079761912791e+16
tp195
(F0.0100002288818359
F2.8115203811967e+16
tp196
(F0.0100002288818359
F2.81162303091507e+16
tp197
(F0.0120000839233398
F3.24165298070487e+16
tp198
(F0.0139999389648438
F3.80773847500063e+16
tp199
(F0.0159997940063477
F4.3149577917825e+16
tp200
(F0.0180001258850098
F4.64646699000791e+16
tp201
(F0.0199999809265137
F4.76313719962337e+16
tp202
(F0.0219998359680176
F5.06392277879357e+16
tp203
(F0.0240001678466797
F5.62827804551414e+16
tp204
(F0.0260000228881836
F8.96081618492457e+16
tp205
(F0.0279998779296875
F9.35820803398697e+16
tp206
(F0.0300002098083496
F9.32900912832184e+16
tp207
(F0.0320000648498535
F8.32920430732902e+16
tp208
(F0.0320000648498535
F8.32722948136632e+16
tp209
(F0.0339999198913574
F7.52416938126213e+16
tp210
(F0.0359997749328613
F6.69789584191652e+16
tp211
(F0.0380001068115234
F5.96590284767232e+16
tp212
(F0.0399999618530273
F5.30019537219748e+16
tp213
(F0.0419998168945313
F4.65992226355282e+16
tp214
(F0.0440001487731934
F4.18326120958525e+16
tp215
(F0.0460000038146973
F3.79839692113183e+16
tp216
(F0.0479998588562012
F3.48194480450437e+16
tp217
(F0.0500001907348633
F3.20289691381268e+16
tp218
(F0.0520000457763672
F2.92391538036572e+16
tp219
(F0.0539999008178711
F2.61369010732401e+16
tp220
(F0.0560002326965332
F2.37151515511357e+16
tp221
(F0.0580000877380371
F2.20499197160325e+16
tp222
(F0.059999942779541
F2.03846900284129e+16
tp223
(F0.0619997978210449
F1.87194603407933e+16
tp224
(F0.064000129699707
F1.70631147930255e+16
tp225
(F0.0659999847412109
F1.57819024263086e+16
tp226
(F0.0679998397827148
F1.47794688705823e+16
tp227
(F0.070000171661377
F1.37760302925087e+16
tp228
(F0.0720000267028809
F1.27728161264763e+16
tp229
(F0.0739998817443848
F1.17696030341857e+16
tp230
(F0.0760002136230469
F1.08850985429893e+16
tp231
(F0.0780000686645508
F1.0339822379991e+16
tp232
(F0.0799999237060547
F9.7356214131753e+15
tp233
(F0.0819997787475586
F9.11639772449997e+15
tp234
(F0.0840001106262207
F8.49702585945293e+15
tp235
(F0.0859999656677246
F7.93579067172454e+15
tp236
(F0.0879998207092285
F7.56776941964493e+15
tp237
(F0.0900001525878906
F7.19966012073574e+15
tp238
(F0.0920000076293945
F6.83163833178522e+15
tp239
(F0.0939998626708984
F6.46361654283469e+15
tp240
(F0.0960001945495605
F6.0955072439255e+15
tp241
(F0.0980000495910645
F5.68902617032294e+15
tp242
(F0.0999999046325684
F5.27503534640333e+15
tp243
(F0.10200023651123
F4.8958332207104e+15
tp244
(F0.104000091552734
F4.7247233342505e+15
tp245
(F0.105999946594238
F4.5536139846615e+15
tp246
(F0.107999801635742
F4.38250436663706e+15
tp247
(F0.110000133514404
F4.21135421485875e+15
tp248
(F0.111999988555908
F4.0402445968343e+15
tp249
(F0.113999843597412
F3.8691347103744e+15
tp250
(F0.116000175476074
F3.6979845585961e+15
tp251
(F0.118000030517578
F3.53611260991898e+15
tp252
(F0.119999885559082
F3.40192494669005e+15
tp253
tp254
a((F0.0
F2.33539555389604e+16
tp255
(F0.00199985504150391
F2.42963314932449e+16
tp256
(F0.00400018692016602
F2.62102870319432e+16
tp257
(F0.00600004196166992
F2.87709980734259e+16
tp258
(F0.00799989700317383
F3.21357312876872e+16
tp259
(F0.0100002288818359
F3.69414131448545e+16
tp260
(F0.0100002288818359
F3.69427918293565e+16
tp261
(F0.0120000839233398
F4.27330992340992e+16
tp262
(F0.0139999389648438
F4.99981437894656e+16
tp263
(F0.0159997940063477
F5.63594284415058e+16
tp264
(F0.0180001258850098
F6.05610660981637e+16
tp265
(F0.0199999809265137
F6.24651109998264e+16
tp266
(F0.0199999809265137
F6.24662792309309e+16
tp267
(F0.0219998359680176
F6.73731505175921e+16
tp268
(F0.0240001678466797
F7.47827593771745e+16
tp269
(F0.0260000228881836
F1.142504508107e+17
tp270
(F0.0279998779296875
F1.20018600479162e+17
tp271
(F0.0300002098083496
F1.20477826972385e+17
tp272
(F0.0320000648498535
F1.0832792283775e+17
tp273
(F0.0320000648498535
F1.083039225605e+17
tp274
(F0.0339999198913574
F9.79007988050166e+16
tp275
(F0.0359997749328613
F8.71604685771899e+16
tp276
(F0.0380001068115234
F7.76088049082696e+16
tp277
(F0.0399999618530273
F6.89302221912801e+16
tp278
(F0.0419998168945313
F6.05679638156411e+16
tp279
(F0.0440001487731934
F5.43654211548611e+16
tp280
(F0.0460000038146973
F4.93547619834921e+16
tp281
(F0.0479998588562012
F4.5232984948736e+16
tp282
(F0.0500001907348633
F4.16043002243318e+16
tp283
(F0.0520000457763672
F3.7976478788354e+16
tp284
(F0.0539999008178711
F3.39381443782246e+16
tp285
(F0.0560002326965332
F3.07874637440614e+16
tp286
(F0.0580000877380371
F2.86239770479165e+16
tp287
(F0.059999942779541
F2.64604924992553e+16
tp288
(F0.0619997978210449
F2.4297007950594e+16
tp289
(F0.064000129699707
F2.21449458674565e+16
tp290
(F0.0659999847412109
F2.04800404498678e+16
tp291
(F0.0679998397827148
F1.91783861863055e+16
tp292
(F0.070000171661377
F1.78755175207404e+16
tp293
(F0.0720000267028809
F1.65729419866931e+16
tp294
(F0.0739998817443848
F1.52703664526459e+16
tp295
(F0.0760002136230469
F1.41220092355543e+16
tp296
(F0.0780000686645508
F1.34143618339308e+16
tp297
(F0.0799999237060547
F1.26300814783283e+16
tp298
(F0.0819997787475586
F1.18262633164964e+16
tp299
(F0.0840001106262207
F1.10222540286198e+16
tp300
(F0.0859999656677246
F1.02937728143852e+16
tp301
(F0.0879998207092285
F9.81630774253978e+15
tp302
(F0.0900001525878906
F9.33872778031923e+15
tp303
(F0.0920000076293945
F8.86126270847386e+15
tp304
(F0.0939998626708984
F8.38379656288666e+15
tp305
(F0.0960001945495605
F7.90621821127885e+15
tp306
(F0.0980000495910645
F7.37881287032832e+15
tp307
(F0.0999999046325684
F6.84165849048678e+15
tp308
(F0.10200023651123
F6.34965173311898e+15
tp309
(F0.104000091552734
F6.12770554000179e+15
tp310
(F0.105999946594238
F5.90576095749734e+15
tp311
(F0.107999801635742
F5.68381530125107e+15
tp312
(F0.110000133514404
F5.46181756852634e+15
tp313
(F0.111999988555908
F5.23987191228006e+15
tp314
(F0.113999843597412
F5.0179267929047e+15
tp315
(F0.116000175476074
F4.79592852330906e+15
tp316
(F0.118000030517578
F4.58596582581862e+15
tp317
(F0.119999885559082
F4.41191254458368e+15
tp318
tp319
a((F0.0
F2.69611310671462e+16
tp320
(F0.00199985504150391
F2.82005469596221e+16
tp321
(F0.00400018692016602
F3.07789940685537e+16
tp322
(F0.00600004196166992
F3.4363569478828e+16
tp323
(F0.00799989700317383
F3.90485627549778e+16
tp324
(F0.0100002288818359
F4.53523850395648e+16
tp325
(F0.0100002288818359
F4.53541159113851e+16
tp326
(F0.0120000839233398
F5.26163730329764e+16
tp327
(F0.0139999389648438
F6.14107523632333e+16
tp328
(F0.0159997940063477
F6.90249605798953e+16
tp329
(F0.0180001258850098
F7.4181601394688e+16
tp330
(F0.0199999809265137
F7.70323086279967e+16
tp331
(F0.0199999809265137
F7.70339321256346e+16
tp332
(F0.0219998359680176
F8.38129367069491e+16
tp333
(F0.0240001678466797
F9.27381020863365e+16
tp334
(F0.0260000228881836
F1.37090004559069e+17
tp335
(F0.0279998779296875
F1.44665820063072e+17
tp336
(F0.0300002098083496
F1.46069346655928e+17
tp337
(F0.0320000648498535
F1.32247008026034e+17
tp338
(F0.0320000648498535
F1.32219709213901e+17
tp339
(F0.0339999198913574
F1.19606549906719e+17
tp340
(F0.0359997749328613
F1.06524526199702e+17
tp341
(F0.0380001068115234
F9.48367261863772e+16
tp342
(F0.0399999618530273
F8.42173680074097e+16
tp343
(F0.0419998168945313
F7.39676433038705e+16
tp344
(F0.0440001487731934
F6.63869444220518e+16
tp345
(F0.0460000038146973
F6.02602122290135e+16
tp346
(F0.0479998588562012
F5.52184274296504e+16
tp347
(F0.0500001907348633
F5.07853941149532e+16
tp348
(F0.0520000457763672
F4.63534216571781e+16
tp349
(F0.0539999008178711
F4.14157039153971e+16
tp350
(F0.0560002326965332
F3.75650423962337e+16
tp351
(F0.0580000877380371
F3.49237491783434e+16
tp352
(F0.059999942779541
F3.22824581079368e+16
tp353
(F0.0619997978210449
F2.96411670375301e+16
tp354
(F0.064000129699707
F2.70137079093002e+16
tp355
(F0.0659999847412109
F2.49807603016663e+16
tp356
(F0.0679998397827148
F2.33923010069791e+16
tp357
(F0.070000171661377
F2.18024394054697e+16
tp358
(F0.0720000267028809
F2.02129428761805e+16
tp359
(F0.0739998817443848
F1.86234441994076e+16
tp360
(F0.0760002136230469
F1.72222197090222e+16
tp361
(F0.0780000686645508
F1.63590150343885e+16
tp362
(F0.0799999237060547
F1.54021747039928e+16
tp363
(F0.0819997787475586
F1.4421462945366e+16
tp364
(F0.0840001106262207
F1.34405181847634e+16
tp365
(F0.0859999656677246
F1.25517810032968e+16
tp366
(F0.0879998207092285
F1.1969494033367e+16
tp367
(F0.0900001525878906
F1.13870664032584e+16
tp368
(F0.0920000076293945
F1.08047783595868e+16
tp369
(F0.0939998626708984
F1.02224903159153e+16
tp370
(F0.0960001945495605
F9.64006268580659e+15
tp371
(F0.0980000495910645
F8.99683120368845e+15
tp372
(F0.0999999046325684
F8.34170051467674e+15
tp373
(F0.10200023651123
F7.7416425806889e+15
tp374
(F0.104000091552734
F7.47101830198067e+15
tp375
(F0.105999946594238
F7.20039402327245e+15
tp376
(F0.107999801635742
F6.92976974456422e+15
tp377
(F0.110000133514404
F6.65908157821747e+15
tp378
(F0.111999988555908
F6.38845676263834e+15
tp379
(F0.113999843597412
F6.11783302080102e+15
tp380
(F0.116000175476074
F5.84714378071245e+15
tp381
(F0.118000030517578
F5.5911304438743e+15
tp382
(F0.119999885559082
F5.37890268800614e+15
tp383
tp384
a((F0.0
F2.96459301562614e+16
tp385
(F0.00199985504150391
F3.1232233377366e+16
tp386
(F0.00400018692016602
F3.45875219585434e+16
tp387
(F0.00600004196166992
F3.93477415868826e+16
tp388
(F0.00799989700317383
F4.54974948046275e+16
tp389
(F0.0100002288818359
F5.33663344524001e+16
tp390
(F0.0100002288818359
F5.33684089216041e+16
tp391
(F0.0120000839233398
F6.20653139690783e+16
tp392
(F0.0139999389648438
F7.23329701610783e+16
tp393
(F0.0159997940063477
F8.11844167217971e+16
tp394
(F0.0180001258850098
F8.73485537850163e+16
tp395
(F0.0199999809265137
F9.12630041584599e+16
tp396
(F0.0199999809265137
F9.12650485628928e+16
tp397
(F0.0219998359680176
F9.98155897148539e+16
tp398
(F0.0240001678466797
F1.1005180245128e+17
tp399
(F0.0260000228881836
F1.58360374825976e+17
tp400
(F0.0279998779296875
F1.67721341946954e+17
tp401
(F0.0300002098083496
F1.7020577436926e+17
tp402
(F0.0320000648498535
F1.55127346783846e+17
tp403
(F0.0320000648498535
F1.55097574070551e+17
tp404
(F0.0339999198913574
F1.40438361063031e+17
tp405
(F0.0359997749328613
F1.25149531619721e+17
tp406
(F0.0380001068115234
F1.11419491837018e+17
tp407
(F0.0399999618530273
F9.89345888432292e+16
tp408
(F0.0419998168945313
F8.68646226399068e+16
tp409
(F0.0440001487731934
F7.7957487533228e+16
tp410
(F0.0460000038146973
F7.07559182995292e+16
tp411
(F0.0479998588562012
F6.48276050056315e+16
tp412
(F0.0500001907348633
F5.96202492170076e+16
tp413
(F0.0520000457763672
F5.44141346739323e+16
tp414
(F0.0539999008178711
F4.86098127909028e+16
tp415
(F0.0560002326965332
F4.40849144207114e+16
tp416
(F0.0580000877380371
F4.09838020041114e+16
tp417
(F0.059999942779541
F3.78826938824786e+16
tp418
(F0.0619997978210449
F3.47815814658785e+16
tp419
(F0.064000129699707
F3.16966030939259e+16
tp420
(F0.0659999847412109
F2.93093958462996e+16
tp421
(F0.0679998397827148
F2.74450020827136e+16
tp422
(F0.070000171661377
F2.55790470985155e+16
tp423
(F0.0720000267028809
F2.3713515168596e+16
tp424
(F0.0739998817443848
F2.18479832386765e+16
tp425
(F0.0760002136230469
F2.02034960956129e+16
tp426
(F0.0780000686645508
F1.9190676235223e+16
tp427
(F0.0799999237060547
F1.80678450825134e+16
tp428
(F0.0819997787475586
F1.69169656458772e+16
tp429
(F0.0840001106262207
F1.57658134788178e+16
tp430
(F0.0859999656677246
F1.47229213311631e+16
tp431
(F0.0879998207092285
F1.40398325525381e+16
tp432
(F0.0900001525878906
F1.33565805651558e+16
tp433
(F0.0920000076293945
F1.26734896390472e+16
tp434
(F0.0939998626708984
F1.19903997866803e+16
tp435
(F0.0960001945495605
F1.1307147799298e+16
tp436
(F0.0980000495910645
F1.05525241928745e+16
tp437
(F0.0999999046325684
F9.78393442654618e+15
tp438
(F0.10200023651123
F9.07996459066982e+15
tp439
(F0.104000091552734
F8.76253483211162e+15
tp440
(F0.105999946594238
F8.44510561042432e+15
tp441
(F0.107999801635742
F8.12767585186611e+15
tp442
(F0.110000133514404
F7.81017039450931e+15
tp443
(F0.111999988555908
F7.4927406359511e+15
tp444
(F0.113999843597412
F7.1753108773929e+15
tp445
(F0.116000175476074
F6.8578054200361e+15
tp446
(F0.118000030517578
F6.55751365473075e+15
tp447
(F0.119999885559082
F6.30858057148006e+15
tp448
tp449
a((F0.0
F3.15260735649219e+16
tp450
(F0.00199985504150391
F3.35168982808003e+16
tp451
(F0.00400018692016602
F3.77646810660864e+16
tp452
(F0.00600004196166992
F4.3831214997504e+16
tp453
(F0.00799989700317383
F5.15489276310323e+16
tp454
(F0.0100002288818359
F6.10164271208202e+16
tp455
(F0.0100002288818359
F6.10188280075387e+16
tp456
(F0.0120000839233398
F7.10990604166758e+16
tp457
(F0.0139999389648438
F8.27900730655375e+16
tp458
(F0.0159997940063477
F9.28631973037998e+16
tp459
(F0.0180001258850098
F1.00061227484447e+17
tp460
(F0.0199999809265137
F1.05089989942968e+17
tp461
(F0.0199999809265137
F1.05092429484392e+17
tp462
(F0.0219998359680176
F1.15290949587829e+17
tp463
(F0.0240001678466797
F1.26674116160782e+17
tp464
(F0.0260000228881836
F1.78235610866123e+17
tp465
(F0.0279998779296875
F1.89341709098811e+17
tp466
(F0.0300002098083496
F1.93005986217198e+17
tp467
(F0.0320000648498535
F1.77031765892792e+17
tp468
(F0.0320000648498535
F1.77000206473101e+17
tp469
(F0.0339999198913574
F1.60457727615697e+17
tp470
(F0.0359997749328613
F1.43095270782009e+17
tp471
(F0.0380001068115234
F1.27415736753717e+17
tp472
(F0.0399999618530273
F1.13136405013594e+17
tp473
(F0.0419998168945313
F9.93096597472543e+16
tp474
(F0.0440001487731934
F8.91231311925084e+16
tp475
(F0.0460000038146973
F8.08843015870218e+16
tp476
(F0.0479998588562012
F7.41000056059986e+16
tp477
(F0.0500001907348633
F6.81453899323802e+16
tp478
(F0.0520000457763672
F6.21921915979694e+16
tp479
(F0.0539999008178711
F5.55509953373143e+16
tp480
(F0.0560002326965332
F5.0375134543872e+16
tp481
(F0.0580000877380371
F4.68303133508895e+16
tp482
(F0.059999942779541
F4.32854921579069e+16
tp483
(F0.0619997978210449
F3.97406752598917e+16
tp484
(F0.064000129699707
F3.62141978722304e+16
tp485
(F0.0659999847412109
F3.34850897530061e+16
tp486
(F0.0679998397827148
F3.13544595566756e+16
tp487
(F0.070000171661377
F2.92221199633613e+16
tp488
(F0.0720000267028809
F2.70902657013514e+16
tp489
(F0.0739998817443848
F2.49584135868252e+16
tp490
(F0.0760002136230469
F2.30792236609044e+16
tp491
(F0.0780000686645508
F2.19220757194998e+16
tp492
(F0.0799999237060547
F2.06390981212242e+16
tp493
(F0.0819997787475586
F1.93240435596984e+16
tp494
(F0.0840001106262207
F1.80086743918182e+16
tp495
(F0.0859999656677246
F1.68170593378632e+16
tp496
(F0.0879998207092285
F1.6036736794624e+16
tp497
(F0.0900001525878906
F1.52562263465656e+16
tp498
(F0.0920000076293945
F1.44759016558428e+16
tp499
(F0.0939998626708984
F1.36955780388618e+16
tp500
(F0.0960001945495605
F1.29150675908035e+16
tp501
(F0.0980000495910645
F1.20529924925686e+16
tp502
(F0.0999999046325684
F1.11749551483781e+16
tp503
(F0.10200023651123
F1.03707461445222e+16
tp504
(F0.104000091552734
F1.00081725215867e+16
tp505
(F0.105999946594238
F9.64559782490931e+15
tp506
(F0.107999801635742
F9.28302312823194e+15
tp507
(F0.110000133514404
F8.92036253220864e+15
tp508
(F0.111999988555908
F8.55778783553126e+15
tp509
(F0.113999843597412
F8.19521313885389e+15
tp510
(F0.116000175476074
F7.83255254283059e+15
tp511
(F0.118000030517578
F7.48955323334656e+15
tp512
(F0.119999885559082
F7.20521673467494e+15
tp513
tp514
a((F0.0
F3.27340417068564e+16
tp515
(F0.00199985504150391
F3.51909283564093e+16
tp516
(F0.00400018692016602
F4.04411200013599e+16
tp517
(F0.00600004196166992
F4.79177131708908e+16
tp518
(F0.00799989700317383
F5.72654217278259e+16
tp519
(F0.0100002288818359
F6.83354121704571e+16
tp520
(F0.0100002288818359
F6.83381308847555e+16
tp521
(F0.0120000839233398
F7.9741058602238e+16
tp522
(F0.0139999389648438
F9.28053956339302e+16
tp523
(F0.0159997940063477
F1.0407758884189e+17
tp524
(F0.0180001258850098
F1.12312372588184e+17
tp525
(F0.0199999809265137
F1.18463006274224e+17
tp526
(F0.0199999809265137
F1.18465806592901e+17
tp527
(F0.0219998359680176
F1.30186961322246e+17
tp528
(F0.0240001678466797
F1.42584332882543e+17
tp529
(F0.0260000228881836
F1.96852971244356e+17
tp530
(F0.0279998779296875
F2.09656045415432e+17
tp531
(F0.0300002098083496
F2.14572614738248e+17
tp532
(F0.0320000648498535
F1.98013969623941e+17
tp533
(F0.0320000648498535
F1.97981259153015e+17
tp534
(F0.0339999198913574
F1.79715072480772e+17
tp535
(F0.0359997749328613
F1.60409744241066e+17
tp536
(F0.0380001068115234
F1.42872482238431e+17
tp537
(F0.0399999618530273
F1.26866565055382e+17
tp538
(F0.0419998168945313
F1.11343488095748e+17
tp539
(F0.0440001487731934
F9.99208421834097e+16
tp540
(F0.0460000038146973
F9.06793696425411e+16
tp541
(F0.0479998588562012
F8.30672616648868e+16
tp542
(F0.0500001907348633
F7.63900392185528e+16
tp543
(F0.0520000457763672
F6.9714414500053e+16
tp544
(F0.0539999008178711
F6.22635997242327e+16
tp545
(F0.0560002326965332
F5.64580237107528e+16
tp546
(F0.0580000877380371
F5.24841052201288e+16
tp547
(F0.059999942779541
F4.85101781395702e+16
tp548
(F0.0619997978210449
F4.45362553539789e+16
tp549
(F0.064000129699707
F4.0582798087553e+16
tp550
(F0.0659999847412109
F3.75230075513078e+16
tp551
(F0.0679998397827148
F3.51349112454513e+16
tp552
(F0.070000171661377
F3.27449595137229e+16
tp553
(F0.0720000267028809
F3.03555575378084e+16
tp554
(F0.0739998817443848
F2.79661555618939e+16
tp555
(F0.0760002136230469
F2.58600002366996e+16
tp556
(F0.0780000686645508
F2.45632830380442e+16
tp557
(F0.0799999237060547
F2.31254353615258e+16
tp558
(F0.0819997787475586
F2.16516087439688e+16
tp559
(F0.0840001106262207
F2.01774277916099e+16
tp560
(F0.0859999656677246
F1.88419871678136e+16
tp561
(F0.0879998207092285
F1.79676413480141e+16
tp562
(F0.0900001525878906
F1.70930829273334e+16
tp563
(F0.0920000076293945
F1.62187349600502e+16
tp564
(F0.0939998626708984
F1.53443880665088e+16
tp565
(F0.0960001945495605
F1.44698307195699e+16
tp566
(F0.0980000495910645
F1.35038464038011e+16
tp567
(F0.0999999046325684
F1.25199692542771e+16
tp568
(F0.10200023651123
F1.16188314284851e+16
tp569
(F0.104000091552734
F1.12126026842112e+16
tp570
(F0.105999946594238
F1.08063760874209e+16
tp571
(F0.107999801635742
F1.04001484168888e+16
tp572
(F0.110000133514404
F9.9938251833344e+15
tp573
(F0.111999988555908
F9.5875975128023e+15
tp574
(F0.113999843597412
F9.18137091601203e+15
tp575
(F0.116000175476074
F8.77504660871578e+15
tp576
(F0.118000030517578
F8.3907511886807e+15
tp577
(F0.119999885559082
F8.07218165317632e+15
tp578
tp579
a((F0.0
F3.3400118120022e+16
tp580
(F0.00199985504150391
F3.63849271172137e+16
tp581
(F0.00400018692016602
F4.27348172210176e+16
tp582
(F0.00600004196166992
F5.16958112175882e+16
tp583
(F0.00799989700317383
F6.26980442561577e+16
tp584
(F0.0100002288818359
F7.53497294199849e+16
tp585
(F0.0100002288818359
F7.53527444870267e+16
tp586
(F0.0120000839233398
F8.8012469829632e+16
tp587
(F0.0139999389648438
F1.02397844312293e+17
tp588
(F0.0159997940063477
F1.14838500552999e+17
tp589
(F0.0180001258850098
F1.24095263177441e+17
tp590
(F0.0199999809265137
F1.31349110753067e+17
tp591
(F0.0199999809265137
F1.31352237489258e+17
tp592
(F0.0219998359680176
F1.44477477157208e+17
tp593
(F0.0240001678466797
F1.57780141924155e+17
tp594
(F0.0260000228881836
F2.14325224621998e+17
tp595
(F0.0279998779296875
F2.2877395846221e+17
tp596
(F0.0300002098083496
F2.34995837065757e+17
tp597
(F0.0320000648498535
F2.18121735193494e+17
tp598
(F0.0320000648498535
F2.18088406247277e+17
tp599
(F0.0339999198913574
F1.98253388280889e+17
tp600
(F0.0359997749328613
F1.77132920962548e+17
tp601
(F0.0380001068115234
F1.57828589155254e+17
tp602
(F0.0399999618530273
F1.40161309902635e+17
tp603
(F0.0419998168945313
F1.229998575384e+17
tp604
(F0.0440001487731934
F1.10381243622752e+17
tp605
(F0.0460000038146973
F1.00169245911941e+17
tp606
(F0.0479998588562012
F9.1755490878423e+16
tp607
(F0.0500001907348633
F8.43783262017946e+16
tp608
(F0.0520000457763672
F7.7002931051692e+16
tp609
(F0.0539999008178711
F6.8767679153963e+16
tp610
(F0.0560002326965332
F6.23519729713152e+16
tp611
(F0.0580000877380371
F5.79623016464384e+16
tp612
(F0.059999942779541
F5.35726303215616e+16
tp613
(F0.0619997978210449
F4.91829589966848e+16
tp614
(F0.064000129699707
F4.48158190702428e+16
tp615
(F0.0659999847412109
F4.14356110888141e+16
tp616
(F0.0679998397827148
F3.87980459025367e+16
tp617
(F0.070000171661377
F3.6158487851434e+16
tp618
(F0.0720000267028809
F3.35195332432364e+16
tp619
(F0.0739998817443848
F3.08805807825224e+16
tp620
(F0.0760002136230469
F2.85545080993874e+16
tp621
(F0.0780000686645508
F2.71225552654828e+16
tp622
(F0.0799999237060547
F2.55346371366748e+16
tp623
(F0.0819997787475586
F2.39069562006405e+16
tp624
(F0.0840001106262207
F2.22788908650332e+16
tp625
(F0.0859999656677246
F2.08040828474491e+16
tp626
(F0.0879998207092285
F1.98386278863995e+16
tp627
(F0.0900001525878906
F1.88729409971159e+16
tp628
(F0.0920000076293945
F1.79074871098081e+16
tp629
(F0.0939998626708984
F1.69420300012749e+16
tp630
(F0.0960001945495605
F1.59763441857331e+16
tp631
(F0.0980000495910645
F1.4909674025386e+16
tp632
(F0.0999999046325684
F1.38232405730263e+16
tp633
(F0.10200023651123
F1.28281739599544e+16
tp634
(F0.104000091552734
F1.23796473040077e+16
tp635
(F0.105999946594238
F1.19311238692864e+16
tp636
(F0.107999801635742
F1.14825972133396e+16
tp637
(F0.110000133514404
F1.1033966404436e+16
tp638
(F0.111999988555908
F1.0585440822231e+16
tp639
(F0.113999843597412
F1.01369152400261e+16
tp640
(F0.116000175476074
F9.68828335738061e+15
tp641
(F0.118000030517578
F9.26397280079053e+15
tp642
(F0.119999885559082
F8.91223215911731e+15
tp643
tp644
a((F0.0
F3.36436599455744e+16
tp645
(F0.00199985504150391
F3.72155222526525e+16
tp646
(F0.00400018692016602
F4.47450809588777e+16
tp647
(F0.00600004196166992
F5.52355901189652e+16
tp648
(F0.00799989700317383
F6.78849087558124e+16
tp649
(F0.0100002288818359
F8.20785859631514e+16
tp650
(F0.0100002288818359
F8.20818844980347e+16
tp651
(F0.0120000839233398
F9.59302592196772e+16
tp652
(F0.0139999389648438
F1.11582168018321e+17
tp653
(F0.0159997940063477
F1.25154161594466e+17
tp654
(F0.0180001258850098
F1.35406222760215e+17
tp655
(F0.0199999809265137
F1.43729500012675e+17
tp656
(F0.0199999809265137
F1.43732944576446e+17
tp657
(F0.0219998359680176
F1.58153563560739e+17
tp658
(F0.0240001678466797
F1.72270966443868e+17
tp659
(F0.0260000228881836
F2.30747787992498e+17
tp660
(F0.0279998779296875
F2.46790246757302e+17
tp661
(F0.0300002098083496
F2.54355866008945e+17
tp662
(F0.0320000648498535
F2.37398682289308e+17
tp663
(F0.0320000648498535
F2.37365198724268e+17
tp664
(F0.0339999198913574
F2.16110419188646e+17
tp665
(F0.0359997749328613
F1.93298954526392e+17
tp666
(F0.0380001068115234
F1.72317111572496e+17
tp667
(F0.0399999618530273
F1.53051400111129e+17
tp668
(F0.0419998168945313
F1.34307338197664e+17
tp669
(F0.0440001487731934
F1.20530294292873e+17
tp670
(F0.0460000038146973
F1.09377844773126e+17
tp671
(F0.0479998588562012
F1.0018684668792e+17
tp672
(F0.0500001907348633
F9.21306992214016e+16
tp673
(F0.0520000457763672
F8.40764759002317e+16
tp674
(F0.0539999008178711
F7.50801772724879e+16
tp675
(F0.0560002326965332
F6.80724656826614e+16
tp676
(F0.0580000877380371
F6.32793508998021e+16
tp677
(F0.059999942779541
F5.84862275270083e+16
tp678
(F0.0619997978210449
F5.3693112744149e+16
tp679
(F0.064000129699707
F4.89245222245499e+16
tp680
(F0.0659999847412109
F4.52333672008253e+16
tp681
(F0.0679998397827148
F4.23536775282033e+16
tp682
(F0.070000171661377
F3.94718575518024e+16
tp683
(F0.0720000267028809
F3.65906990003651e+16
tp684
(F0.0739998817443848
F3.37095468913787e+16
tp685
(F0.0760002136230469
F3.11700315135017e+16
tp686
(F0.0780000686645508
F2.96068115941294e+16
tp687
(F0.0799999237060547
F2.78732317969613e+16
tp688
(F0.0819997787475586
F2.60962191430124e+16
tp689
(F0.0840001106262207
F2.43187812873011e+16
tp690
(F0.0859999656677246
F2.27086989797622e+16
tp691
(F0.0879998207092285
F2.1654804199637e+16
tp692
(F0.0900001525878906
F2.06006603114086e+16
tp693
(F0.0920000076293945
F1.95467655312835e+16
tp694
(F0.0939998626708984
F1.84928707511583e+16
tp695
(F0.0960001945495605
F1.74387268629299e+16
tp696
(F0.0980000495910645
F1.62743172055695e+16
tp697
(F0.0999999046325684
F1.50883317799977e+16
tp698
(F0.10200023651123
F1.40020905274245e+16
tp699
(F0.104000091552734
F1.35125072053535e+16
tp700
(F0.105999946594238
F1.30229228095406e+16
tp701
(F0.107999801635742
F1.25333373399859e+16
tp702
(F0.110000133514404
F1.20436359063142e+16
tp703
(F0.111999988555908
F1.15540525842432e+16
tp704
(F0.113999843597412
F1.10644681884303e+16
tp705
(F0.116000175476074
F1.05747678285005e+16
tp706
(F0.118000030517578
F1.01116146614272e+16
tp707
(F0.119999885559082
F9.72767357619405e+15
tp708
tp709
a((F0.0
F3.35694858603725e+16
tp710
(F0.00199985504150391
F3.77821358131773e+16
tp711
(F0.00400018692016602
F4.65513552250143e+16
tp712
(F0.00600004196166992
F5.85892637924393e+16
tp713
(F0.00799989700317383
F7.28526440240251e+16
tp714
(F0.0100002288818359
F8.85351415797514e+16
tp715
(F0.0100002288818359
F8.85387064026071e+16
tp716
(F0.0120000839233398
F1.03507715401187e+17
tp717
(F0.0139999389648438
F1.20370298171163e+17
tp718
(F0.0159997940063477
F1.35031993669779e+17
tp719
(F0.0180001258850098
F1.4624532005598e+17
tp720
(F0.0199999809265137
F1.55596236953485e+17
tp721
(F0.0199999809265137
F1.55599964985098e+17
tp722
(F0.0219998359680176
F1.71217874822627e+17
tp723
(F0.0240001678466797
F1.86073805922238e+17
tp724
(F0.0260000228881836
F2.46203090368201e+17
tp725
(F0.0279998779296875
F2.63788163946775e+17
tp726
(F0.0300002098083496
F2.72724582140477e+17
tp727
(F0.0320000648498535
F2.55885149244228e+17
tp728
(F0.0320000648498535
F2.55851889017487e+17
tp729
(F0.0339999198913574
F2.33319940826857e+17
tp730
(F0.0359997749328613
F2.08937703545242e+17
tp731
(F0.0380001068115234
F1.86366482173657e+17
tp732
(F0.0399999618530273
F1.65563327039144e+17
tp733
(F0.0419998168945313
F1.45290566005948e+17
tp734
(F0.0440001487731934
F1.30390396743188e+17
tp735
(F0.0460000038146973
F1.1832571334964e+17
tp736
(F0.0479998588562012
F1.08380415928041e+17
tp737
(F0.0500001907348633
F9.96647676432876e+16
tp738
(F0.0520000457763672
F9.09511981227049e+16
tp739
(F0.0539999008178711
F8.12156497239736e+16
tp740
(F0.0560002326965332
F7.36328162434089e+16
tp741
(F0.0580000877380371
F6.84476353709343e+16
tp742
(F0.059999942779541
F6.32624544984596e+16
tp743
(F0.0619997978210449
F5.80772779209523e+16
tp744
(F0.064000129699707
F5.29185755218575e+16
tp745
(F0.0659999847412109
F4.8925235189121e+16
tp746
(F0.0679998397827148
F4.58102113734492e+16
tp747
(F0.070000171661377
F4.26929284049797e+16
tp748
(F0.0720000267028809
F3.9576354106114e+16
tp749
(F0.0739998817443848
F3.64597841022157e+16
tp750
(F0.0760002136230469
F3.37127981816218e+16
tp751
(F0.0780000686645508
F3.20219726364017e+16
tp752
(F0.0799999237060547
F3.01467942099354e+16
tp753
(F0.0819997787475586
F2.82246159563489e+16
tp754
(F0.0840001106262207
F2.63019781412618e+16
tp755
(F0.0859999656677246
F2.4560392525054e+16
tp756
(F0.0879998207092285
F2.34205189421138e+16
tp757
(F0.0900001525878906
F2.2280374776234e+16
tp758
(F0.0920000076293945
F2.11405011932938e+16
tp759
(F0.0939998626708984
F2.00006297578373e+16
tp760
(F0.0960001945495605
F1.88604855919575e+16
tp761
(F0.0980000495910645
F1.76010572993659e+16
tp762
(F0.0999999046325684
F1.63182880070042e+16
tp763
(F0.10200023651123
F1.51434093668598e+16
tp764
(F0.104000091552734
F1.46139053975142e+16
tp765
(F0.105999946594238
F1.40844035756524e+16
tp766
(F0.107999801635742
F1.35548996063068e+16
tp767
(F0.110000133514404
F1.30252710829097e+16
tp768
(F0.111999988555908
F1.2495768187306e+16
tp769
(F0.113999843597412
F1.19662652917023e+16
tp770
(F0.116000175476074
F1.14366367683052e+16
tp771
(F0.118000030517578
F1.09357211750236e+16
tp772
(F0.119999885559082
F1.05204740731699e+16
tp773
tp774
a((F0.0
F3.32669483640422e+16
tp775
(F0.00199985504150391
F3.81666771200901e+16
tp776
(F0.00400018692016602
F4.82146629147689e+16
tp777
(F0.00600004196166992
F6.17938247913308e+16
tp778
(F0.00799989700317383
F7.7619026930434e+16
tp779
(F0.0100002288818359
F9.47282868520878e+16
tp780
(F0.0100002288818359
F9.47321093729812e+16
tp781
(F0.0120000839233398
F1.10755386813841e+17
tp782
(F0.0139999389648438
F1.28772482562785e+17
tp783
(F0.0159997940063477
F1.44479710540202e+17
tp784
(F0.0180001258850098
F1.56616240146678e+17
tp785
(F0.0199999809265137
F1.66949416064778e+17
tp786
(F0.0199999809265137
F1.66953401794429e+17
tp787
(F0.0219998359680176
F1.83680753224122e+17
tp788
(F0.0240001678466797
F1.99210410073653e+17
tp789
(F0.0260000228881836
F2.60763544897716e+17
tp790
(F0.0279998779296875
F2.79841652187595e+17
tp791
(F0.0300002098083496
F2.90166959725609e+17
tp792
(F0.0320000648498535
F2.73618828691243e+17
tp793
(F0.0320000648498535
F2.73586135400186e+17
tp794
(F0.0339999198913574
F2.49912670801625e+17
tp795
(F0.0359997749328613
F2.24075659377377e+17
tp796
(F0.0380001068115234
F2.00001594589184e+17
tp797
(F0.0399999618530273
F1.77720249150341e+17
tp798
(F0.0419998168945313
F1.55971050159473e+17
tp799
(F0.0440001487731934
F1.39981127434633e+17
tp800
(F0.0460000038146973
F1.27030890504126e+17
tp801
(F0.0479998588562012
F1.16352880251765e+17
tp802
(F0.0500001907348633
F1.06995916040307e+17
tp803
(F0.0520000457763672
F9.7641176621908e+16
tp804
(F0.0539999008178711
F8.71867881367798e+16
tp805
(F0.0560002326965332
F7.90446038853878e+16
tp806
(F0.0580000877380371
F7.34779569025843e+16
tp807
(F0.059999942779541
F6.79113013298463e+16
tp808
(F0.0619997978210449
F6.23446543470428e+16
tp809
(F0.064000129699707
F5.68063713282621e+16
tp810
(F0.0659999847412109
F5.25190104193434e+16
tp811
(F0.0679998397827148
F4.91749574726124e+16
tp812
(F0.070000171661377
F4.58284950492283e+16
tp813
(F0.0720000267028809
F4.24828014249902e+16
tp814
(F0.0739998817443848
F3.91371120957194e+16
tp815
(F0.0760002136230469
F3.61882004351877e+16
tp816
(F0.0780000686645508
F3.43731708782182e+16
tp817
(F0.0799999237060547
F3.23601605087724e+16
tp818
(F0.0819997787475586
F3.02966842735985e+16
tp819
(F0.0840001106262207
F2.82327141171855e+16
tp820
(F0.0859999656677246
F2.63631212956877e+16
tp821
(F0.0879998207092285
F2.51395473900831e+16
tp822
(F0.0900001525878906
F2.39156814267023e+16
tp823
(F0.0920000076293945
F2.26921053736141e+16
tp824
(F0.0939998626708984
F2.14685314680095e+16
tp825
(F0.0960001945495605
F2.02446633571451e+16
tp826
(F0.0980000495910645
F1.88927365013832e+16
tp827
(F0.0999999046325684
F1.75157452902236e+16
tp828
(F0.10200023651123
F1.62545753883935e+16
tp829
(F0.104000091552734
F1.56862094812119e+16
tp830
(F0.105999946594238
F1.51178446477722e+16
tp831
(F0.107999801635742
F1.45494765931069e+16
tp832
(F0.110000133514404
F1.39809753944556e+16
tp833
(F0.111999988555908
F1.3412609487274e+16
tp834
(F0.113999843597412
F1.28442435800924e+16
tp835
(F0.116000175476074
F1.22757413076992e+16
tp836
(F0.118000030517578
F1.17380607943639e+16
tp837
(F0.119999885559082
F1.1292335530836e+16
tp838
tp839
a((F0.0
F3.28106016463913e+16
tp840
(F0.00199985504150391
F3.84346873743278e+16
tp841
(F0.00400018692016602
F4.97800882998477e+16
tp842
(F0.00600004196166992
F6.48741495662182e+16
tp843
(F0.00799989700317383
F8.21954863830139e+16
tp844
(F0.0100002288818359
F1.00664301022347e+17
tp845
(F0.0100002288818359
F1.00668355471475e+17
tp846
(F0.0120000839233398
F1.17682258529223e+17
tp847
(F0.0139999389648438
F1.36798350509867e+17
tp848
(F0.0159997940063477
F1.5350591073026e+17
tp849
(F0.0180001258850098
F1.66525897929654e+17
tp850
(F0.0199999809265137
F1.77795119020245e+17
tp851
(F0.0199999809265137
F1.77799345268064e+17
tp852
(F0.0219998359680176
F1.95557695007228e+17
tp853
(F0.0240001678466797
F2.11705569449345e+17
tp854
(F0.0260000228881836
F2.74493610450223e+17
tp855
(F0.0279998779296875
F2.95016974235206e+17
tp856
(F0.0300002098083496
F3.06742028794855e+17
tp857
(F0.0320000648498535
F2.9063517988035e+17
tp858
(F0.0320000648498535
F2.90603362762621e+17
tp859
(F0.0339999198913574
F2.65916852817887e+17
tp860
(F0.0359997749328613
F2.38736667681227e+17
tp861
(F0.0380001068115234
F2.1324449059124e+17
tp862
(F0.0399999618530273
F1.89542558949442e+17
tp863
(F0.0419998168945313
F1.66367705694208e+17
tp864
(F0.0440001487731934
F1.49319743545803e+17
tp865
(F0.0460000038146973
F1.35509233255842e+17
tp866
(F0.0479998588562012
F1.24118971396915e+17
tp867
(F0.0500001907348633
F1.1413770791918e+17
tp868
(F0.0520000457763672
F1.04158815263392e+17
tp869
(F0.0539999008178711
F9.30047766057452e+16
tp870
(F0.0560002326965332
F8.43180248609587e+16
tp871
(F0.0580000877380371
F7.83797858976399e+16
tp872
(F0.059999942779541
F7.24415383443866e+16
tp873
(F0.0619997978210449
F6.65032993810678e+16
tp874
(F0.064000129699707
F6.05952841026109e+16
tp875
(F0.0659999847412109
F5.60215132995584e+16
tp876
(F0.0679998397827148
F5.24543024420618e+16
tp877
(F0.070000171661377
F4.88845360790241e+16
tp878
(F0.0720000267028809
F4.53155986446746e+16
tp879
(F0.0739998817443848
F4.17466526203904e+16
tp880
(F0.0760002136230469
F3.86009885080289e+16
tp881
(F0.0780000686645508
F3.6664903150338e+16
tp882
(F0.0799999237060547
F3.4517578416128e+16
tp883
(F0.0819997787475586
F3.23163947920261e+16
tp884
(F0.0840001106262207
F3.01146893293978e+16
tp885
(F0.0859999656677246
F2.81203491827876e+16
tp886
(F0.0879998207092285
F2.68151902259118e+16
tp887
(F0.0900001525878906
F2.55097177364234e+16
tp888
(F0.0920000076293945
F2.42045587795476e+16
tp889
(F0.0939998626708984
F2.28993998226719e+16
tp890
(F0.0960001945495605
F2.15939273331835e+16
tp891
(F0.0980000495910645
F2.01518383764603e+16
tp892
(F0.0999999046325684
F1.86830132483195e+16
tp893
(F0.10200023651123
F1.733773392819e+16
tp894
(F0.104000091552734
F1.67314853357158e+16
tp895
(F0.105999946594238
F1.61252367432417e+16
tp896
(F0.107999801635742
F1.55189881507676e+16
tp897
(F0.110000133514404
F1.49125946031473e+16
tp898
(F0.111999988555908
F1.43063449369313e+16
tp899
(F0.113999843597412
F1.37000963444572e+16
tp900
(F0.116000175476074
F1.30937027968369e+16
tp901
(F0.118000030517578
F1.25201829289001e+16
tp902
(F0.119999885559082
F1.20447493765857e+16
tp903
tp904
a((F0.0
F3.22615609445581e+16
tp905
(F0.00199985504150391
F3.86371693125304e+16
tp906
(F0.00400018692016602
F5.12796675413115e+16
tp907
(F0.00600004196166992
F6.78460264168817e+16
tp908
(F0.00799989700317383
F8.65893495959716e+16
tp909
(F0.0100002288818359
F1.06348192022397e+17
tp910
(F0.0100002288818359
F1.06352469809824e+17
tp911
(F0.0120000839233398
F1.24296628424147e+17
tp912
(F0.0139999389648438
F1.44457548508955e+17
tp913
(F0.0159997940063477
F1.62120343815717e+17
tp914
(F0.0180001258850098
F1.75983862592045e+17
tp915
(F0.0199999809265137
F1.88143688101134e+17
tp916
(F0.0199999809265137
F1.88148154867122e+17
tp917
(F0.0219998359680176
F2.0686752930857e+17
tp918
(F0.0240001678466797
F2.23585723867988e+17
tp919
(F0.0260000228881836
F2.87451183184871e+17
tp920
(F0.0279998779296875
F3.09373881674629e+17
tp921
(F0.0300002098083496
F3.22503734137455e+17
tp922
(F0.0320000648498535
F3.06967703556456e+17
tp923
(F0.0320000648498535
F3.06937020310094e+17
tp924
(F0.0339999198913574
F2.81358772075495e+17
tp925
(F0.0359997749328613
F2.529424094517e+17
tp926
(F0.0380001068115234
F2.2611487548978e+17
tp927
(F0.0399999618530273
F2.01048484277649e+17
tp928
(F0.0419998168945313
F1.76497420421562e+17
tp929
(F0.0440001487731934
F1.58421621059617e+17
tp930
(F0.0460000038146973
F1.43774906406928e+17
tp931
(F0.0479998588562012
F1.31691789013746e+17
tp932
(F0.0500001907348633
F1.21102246497747e+17
tp933
(F0.0520000457763672
F1.10515212242649e+17
tp934
(F0.0539999008178711
F9.86795794549965e+16
tp935
(F0.0560002326965332
F8.94621415511163e+16
tp936
(F0.0580000877380371
F8.31615619668378e+16
tp937
(F0.059999942779541
F7.68609823825592e+16
tp938
(F0.0619997978210449
F7.05604027982807e+16
tp939
(F0.064000129699707
F6.42918636700303e+16
tp940
(F0.0659999847412109
F5.94388255034573e+16
tp941
(F0.0679998397827148
F5.56539457033994e+16
tp942
(F0.070000171661377
F5.18663600739451e+16
tp943
(F0.0720000267028809
F4.80796506178191e+16
tp944
(F0.0739998817443848
F4.42929454566605e+16
tp945
(F0.0760002136230469
F4.09553478457754e+16
tp946
(F0.0780000686645508
F3.89011594773791e+16
tp947
(F0.0799999237060547
F3.66227909960008e+16
tp948
(F0.0819997787475586
F3.42872693848146e+16
tp949
(F0.0840001106262207
F3.19511894278799e+16
tp950
(F0.0859999656677246
F2.9835142793003e+16
tp951
(F0.0879998207092285
F2.84503766172959e+16
tp952
(F0.0900001525878906
F2.7065273286656e+16
tp953
(F0.0920000076293945
F2.56805028159816e+16
tp954
(F0.0939998626708984
F2.42957323453071e+16
tp955
(F0.0960001945495605
F2.29106311621509e+16
tp956
(F0.0980000495910645
F2.13805640953364e+16
tp957
(F0.0999999046325684
F1.98221266220483e+16
tp958
(F0.10200023651123
F1.83947801405686e+16
tp959
(F0.104000091552734
F1.77515615433523e+16
tp960
(F0.105999946594238
F1.71083450936197e+16
tp961
(F0.107999801635742
F1.64651286438871e+16
tp962
(F0.110000133514404
F1.58217575753318e+16
tp963
(F0.111999988555908
F1.51785389781156e+16
tp964
(F0.113999843597412
F1.4535322528383e+16
tp965
(F0.116000175476074
F1.38919514598277e+16
tp966
(F0.118000030517578
F1.32834598206833e+16
tp967
(F0.119999885559082
F1.27790320178954e+16
tp968
tp969
a((F0.0
F3.16689520944742e+16
tp970
(F0.00199985504150391
F3.88126573812777e+16
tp971
(F0.00400018692016602
F5.27351503535473e+16
tp972
(F0.00600004196166992
F7.07188355518956e+16
tp973
(F0.00799989700317383
F9.080550424209e+16
tp974
(F0.0100002288818359
F1.1178462418672e+17
tp975
(F0.0100002288818359
F1.11789108132577e+17
tp976
(F0.0120000839233398
F1.30606656936477e+17
tp977
(F0.0139999389648438
F1.51760161143259e+17
tp978
(F0.0159997940063477
F1.70334004912849e+17
tp979
(F0.0180001258850098
F1.85001902344241e+17
tp980
(F0.0199999809265137
F1.98008592324887e+17
tp981
(F0.0199999809265137
F1.98013282429174e+17
tp982
(F0.0219998359680176
F2.1763124992829e+17
tp983
(F0.0240001678466797
F2.34878120602108e+17
tp984
(F0.0260000228881836
F2.99688592983196e+17
tp985
(F0.0279998779296875
F3.22966697252225e+17
tp986
(F0.0300002098083496
F3.3750148505718e+17
tp987
(F0.0320000648498535
F3.22648113758077e+17
tp988
(F0.0320000648498535
F3.22618770541511e+17
tp989
(F0.0339999198913574
F2.96262823988691e+17
tp990
(F0.0359997749328613
F2.66712727437705e+17
tp991
(F0.0380001068115234
F2.386304789098e+17
tp992
(F0.0399999618530273
F2.1225432883082e+17
tp993
(F0.0419998168945313
F1.86375226727072e+17
tp994
(F0.0440001487731934
F1.67300521051292e+17
tp995
(F0.0460000038146973
F1.51840597290779e+17
tp996
(F0.0479998588562012
F1.39083127082451e+17
tp997
(F0.0500001907348633
F1.27900372273463e+17
tp998
(F0.0520000457763672
F1.16720306114003e+17
tp999
(F0.0539999008178711
F1.04220087266836e+17
tp1000
(F0.0560002326965332
F9.44850714440499e+16
tp1001
(F0.0580000877380371
F8.78308442526188e+16
tp1002
(F0.059999942779541
F8.1176608471253e+16
tp1003
(F0.0619997978210449
F7.45223726898872e+16
tp1004
(F0.064000129699707
F6.79019597759775e+16
tp1005
(F0.0659999847412109
F6.27763500998984e+16
tp1006
(F0.0679998397827148
F5.87789467280998e+16
tp1007
(F0.070000171661377
F5.47786914980168e+16
tp1008
(F0.0720000267028809
F5.07793596859023e+16
tp1009
(F0.0739998817443848
F4.67800235788206e+16
tp1010
(F0.0760002136230469
F4.32550193649418e+16
tp1011
(F0.0780000686645508
F4.10854939447788e+16
tp1012
(F0.0799999237060547
F3.86791526178488e+16
tp1013
(F0.0819997787475586
F3.62124412306063e+16
tp1014
(F0.0840001106262207
F3.37451414328443e+16
tp1015
(F0.0859999656677246
F3.15102401679852e+16
tp1016
(F0.0879998207092285
F3.00477050194493e+16
tp1017
(F0.0900001525878906
F2.85848241260462e+16
tp1018
(F0.0920000076293945
F2.7122291124994e+16
tp1019
(F0.0939998626708984
F2.56597581239419e+16
tp1020
(F0.0960001945495605
F2.41968772305388e+16
tp1021
(F0.0980000495910645
F2.25808764580659e+16
tp1022
(F0.0999999046325684
F2.09349118462525e+16
tp1023
(F0.10200023651123
F1.94274019476767e+16
tp1024
(F0.104000091552734
F1.8748069117952e+16
tp1025
(F0.105999946594238
F1.80687405831946e+16
tp1026
(F0.107999801635742
F1.73894099009536e+16
tp1027
(F0.110000133514404
F1.6709918157439e+16
tp1028
(F0.111999988555908
F1.60305864014561e+16
tp1029
(F0.113999843597412
F1.53512567929569e+16
tp1030
(F0.116000175476074
F1.46717650494423e+16
tp1031
(F0.118000030517578
F1.40291080192e+16
tp1032
(F0.119999885559082
F1.34963592020623e+16
tp1033
tp1034
a((F0.0
F3.10715457659208e+16
tp1035
(F0.00199985504150391
F3.89892406666854e+16
tp1036
(F0.00400018692016602
F5.41604352507249e+16
tp1037
(F0.00600004196166992
F7.34976450326692e+16
tp1038
(F0.00799989700317383
F9.48475580938977e+16
tp1039
(F0.0100002288818359
F1.16978425058558e+17
tp1040
(F0.0100002288818359
F1.16983106572911e+17
tp1041
(F0.0120000839233398
F1.36620822331654e+17
tp1042
(F0.0139999389648438
F1.58716771212198e+17
tp1043
(F0.0159997940063477
F1.78158954289824e+17
tp1044
(F0.0180001258850098
F1.93593451843944e+17
tp1045
(F0.0199999809265137
F2.07405465372459e+17
tp1046
(F0.0199999809265137
F2.07410344455307e+17
tp1047
(F0.0219998359680176
F2.27871070437245e+17
tp1048
(F0.0240001678466797
F2.45610247442399e+17
tp1049
(F0.0260000228881836
F3.11253565521789e+17
tp1050
(F0.0279998779296875
F3.35844864631505e+17
tp1051
(F0.0300002098083496
F3.5178077384763e+17
tp1052
(F0.0320000648498535
F3.37706372177068e+17
tp1053
(F0.0320000648498535
F3.37678575148728e+17
tp1054
(F0.0339999198913574
F3.1065202958218e+17
tp1055
(F0.0359997749328613
F2.80066055638876e+17
tp1056
(F0.0380001068115234
F2.50807432748466e+17
tp1057
(F0.0399999618530273
F2.23174815756845e+17
tp1058
(F0.0419998168945313
F1.96014713887261e+17
tp1059
(F0.0440001487731934
F1.75968898925986e+17
tp1060
(F0.0460000038146973
F1.59717790649942e+17
tp1061
(F0.0479998588562012
F1.46303611352121e+17
tp1062
(F0.0500001907348633
F1.34541912131502e+17
tp1063
(F0.0520000457763672
F1.22783021819494e+17
tp1064
(F0.0539999008178711
F1.09634365989847e+17
tp1065
(F0.0560002326965332
F9.93941245740974e+16
tp1066
(F0.0580000877380371
F9.23944188033106e+16
tp1067
(F0.059999942779541
F8.53947044425892e+16
tp1068
(F0.0619997978210449
F7.83949986718024e+16
tp1069
(F0.064000129699707
F7.14308423453245e+16
tp1070
(F0.0659999847412109
F6.60389790566318e+16
tp1071
(F0.0679998397827148
F6.18338925412352e+16
tp1072
(F0.070000171661377
F5.76257909587968e+16
tp1073
(F0.0720000267028809
F5.34186643339346e+16
tp1074
(F0.0739998817443848
F4.92115377090724e+16
tp1075
(F0.0760002136230469
F4.5503378909823e+16
tp1076
(F0.0780000686645508
F4.32211020082053e+16
tp1077
(F0.0799999237060547
F4.0689678348714e+16
tp1078
(F0.0819997787475586
F3.80947364178821e+16
tp1079
(F0.0840001106262207
F3.54991717167923e+16
tp1080
(F0.0859999656677246
F3.31480894390927e+16
tp1081
(F0.0879998207092285
F3.16095290744504e+16
tp1082
(F0.0900001525878906
F3.00706014901043e+16
tp1083
(F0.0920000076293945
F2.85320432729457e+16
tp1084
(F0.0939998626708984
F2.69934786133361e+16
tp1085
(F0.0960001945495605
F2.54545531764736e+16
tp1086
(F0.0980000495910645
F2.37545364012401e+16
tp1087
(F0.0999999046325684
F2.20230010085048e+16
tp1088
(F0.10200023651123
F2.04371143992279e+16
tp1089
(F0.104000091552734
F1.97224747908465e+16
tp1090
(F0.105999946594238
F1.90078330349814e+16
tp1091
(F0.107999801635742
F1.82931912791163e+16
tp1092
(F0.110000133514404
F1.75783820195267e+16
tp1093
(F0.111999988555908
F1.68637402636616e+16
tp1094
(F0.113999843597412
F1.61490985077965e+16
tp1095
(F0.116000175476074
F1.54342871007232e+16
tp1096
(F0.118000030517578
F1.47582270360781e+16
tp1097
(F0.119999885559082
F1.41977842698158e+16
tp1098
tp1099
aa.