(lp0
(lp1
((F0.0
F0.0
tp2
(F0.00199985504150391
F0.0
tp3
(F0.00400018692016602
F0.0
tp4
(F0.00600004196166992
F0.0
tp5
(F0.00799989700317383
F0.0
tp6
(F0.0100002288818359
F0.0
tp7
(F0.0120000839233398
F0.0
tp8
(F0.0139999389648438
F0.0
tp9
(F0.0159997940063477
F0.0
tp10
(F0.0180001258850098
F0.0
tp11
(F0.0199999809265137
F0.0
tp12
(F0.0219998359680176
F0.0
tp13
(F0.0240001678466797
F0.0
tp14
(F0.0260000228881836
F0.0
tp15
(F0.0279998779296875
F0.0
tp16
(F0.0300002098083496
F0.0
tp17
(F0.0320000648498535
F0.0
tp18
(F0.0339999198913574
F0.0
tp19
(F0.0359997749328613
F0.0
tp20
(F0.0380001068115234
F0.0
tp21
(F0.0399999618530273
F0.0
tp22
(F0.0419998168945313
F0.0
tp23
(F0.0440001487731934
F0.0
tp24
(F0.0460000038146973
F0.0
tp25
(F0.0479998588562012
F0.0
tp26
(F0.0500001907348633
F0.0
tp27
(F0.0520000457763672
F0.0
tp28
(F0.0539999008178711
F0.0
tp29
(F0.0560002326965332
F0.0
tp30
(F0.0580000877380371
F0.0
tp31
(F0.059999942779541
F0.0
tp32
(F0.0619997978210449
F0.0
tp33
(F0.064000129699707
F0.0
tp34
(F0.0659999847412109
F0.0
tp35
(F0.0679998397827148
F0.0
tp36
(F0.070000171661377
F0.0
tp37
(F0.0720000267028809
F0.0
tp38
(F0.0739998817443848
F0.0
tp39
(F0.0760002136230469
F0.0
tp40
(F0.0780000686645508
F0.0
tp41
(F0.0799999237060547
F0.0
tp42
(F0.0819997787475586
F0.0
tp43
(F0.0840001106262207
F0.0
tp44
(F0.0859999656677246
F0.0
tp45
(F0.0879998207092285
F0.0
tp46
(F0.0900001525878906
F0.0
tp47
(F0.0920000076293945
F0.0
tp48
(F0.0939998626708984
F0.0
tp49
(F0.0960001945495605
F0.0
tp50
(F0.0980000495910645
F0.0
tp51
(F0.0999999046325684
F0.0
tp52
(F0.10200023651123
F0.0
tp53
(F0.104000091552734
F0.0
tp54
(F0.105999946594238
F0.0
tp55
(F0.107999801635742
F0.0
tp56
(F0.110000133514404
F0.0
tp57
(F0.111999988555908
F0.0
tp58
(F0.113999843597412
F0.0
tp59
(F0.116000175476074
F0.0
tp60
(F0.118000030517578
F0.0
tp61
(F0.119999885559082
F0.0
tp62
tp63
a((F0.0
F2.54596534501376e+15
tp64
(F0.00199985504150391
F2.62957010465587e+15
tp65
(F0.00400018692016602
F2.7850379886592e+15
tp66
(F0.00600004196166992
F2.95162876421734e+15
tp67
(F0.00799989700317383
F3.16088198679757e+15
tp68
(F0.0100002288818359
F3.53638775626138e+15
tp69
(F0.0120000839233398
F4.05080860576973e+15
tp70
(F0.0139999389648438
F4.82483848504934e+15
tp71
(F0.0159997940063477
F5.59574055439565e+15
tp72
(F0.0180001258850098
F6.1586701067223e+15
tp73
(F0.0199999809265137
F6.36615514495386e+15
tp74
(F0.0219998359680176
F6.39851664978739e+15
tp75
(F0.0240001678466797
F6.93390418745754e+15
tp76
(F0.0260000228881836
F1.25005356010045e+16
tp77
(F0.0279998779296875
F1.28051303866696e+16
tp78
(F0.0300002098083496
F1.25132175656878e+16
tp79
(F0.0320000648498535
F1.1019177758294e+16
tp80
(F0.0320000648498535
F1.10162281895035e+16
tp81
(F0.0339999198913574
F9.95847974997197e+15
tp82
(F0.0359997749328613
F8.87202052780851e+15
tp83
(F0.0380001068115234
F7.91394217308979e+15
tp84
(F0.0399999618530273
F7.03788964066099e+15
tp85
(F0.0419998168945313
F6.19894777315328e+15
tp86
(F0.0440001487731934
F5.56755214716109e+15
tp87
(F0.0460000038146973
F5.05844121940787e+15
tp88
(F0.0479998588562012
F4.6402735397929e+15
tp89
(F0.0500001907348633
F4.26967450202931e+15
tp90
(F0.0520000457763672
F3.89916324265984e+15
tp91
(F0.0539999008178711
F3.48836626379571e+15
tp92
(F0.0560002326965332
F3.16710405223219e+15
tp93
(F0.0580000877380371
F2.94527060200653e+15
tp94
(F0.059999942779541
F2.72343715178086e+15
tp95
(F0.0619997978210449
F2.5016037015552e+15
tp96
(F0.064000129699707
F2.28098894829978e+15
tp97
(F0.0659999847412109
F2.11040318206771e+15
tp98
(F0.0679998397827148
F1.97662099059507e+15
tp99
(F0.070000171661377
F1.84267746941338e+15
tp100
(F0.0720000267028809
F1.70876347613184e+15
tp101
(F0.0739998817443848
F1.57484961706803e+15
tp102
(F0.0760002136230469
F1.45675197507174e+15
tp103
(F0.0780000686645508
F1.38385215297946e+15
tp104
(F0.0799999237060547
F1.30312582673203e+15
tp105
(F0.0819997787475586
F1.22040408552243e+15
tp106
(F0.0840001106262207
F1.13766274852454e+15
tp107
(F0.0859999656677246
F1.06266751926272e+15
tp108
(F0.0879998207092285
F1.01341712927949e+15
tp109
(F0.0900001525878906
F964154928136192.0
tp110
(F0.0920000076293945
F914904403935232.0
tp111
(F0.0939998626708984
F865654013952000.0
tp112
(F0.0960001945495605
F816391812808704.0
tp113
(F0.0980000495910645
F762007728947200.0
tp114
(F0.0999999046325684
F706621307092992.0
tp115
(F0.10200023651123
F655885865058304.0
tp116
(F0.104000091552734
F632970738139136.0
tp117
(F0.105999946594238
F610055745437696.0
tp118
(F0.107999801635742
F587140618518528.0
tp119
(F0.110000133514404
F564220122890240.0
tp120
(F0.111999988555908
F541305063079936.0
tp121
(F0.113999843597412
F518390003269632.0
tp122
(F0.116000175476074
F495469440532480.0
tp123
(F0.118000030517578
F473791398412288.0
tp124
(F0.119999885559082
F455820617711616.0
tp125
tp126
a((F0.0
F4.94009983801754e+15
tp127
(F0.00199985504150391
F5.10828270426522e+15
tp128
(F0.00400018692016602
F5.4299301207081e+15
tp129
(F0.00600004196166992
F5.80518409771418e+15
tp130
(F0.00799989700317383
F6.28875876053811e+15
tp131
(F0.0100002288818359
F7.0894834721751e+15
tp132
(F0.0100002288818359
F7.08973526463283e+15
tp133
(F0.0120000839233398
F8.14633426354176e+15
tp134
(F0.0139999389648438
F9.62568313529958e+15
tp135
(F0.0159997940063477
F1.10068673082819e+16
tp136
(F0.0180001258850098
F1.19322341183324e+16
tp137
(F0.0199999809265137
F1.22063851020616e+16
tp138
(F0.0219998359680176
F1.26812463499837e+16
tp139
(F0.0240001678466797
F1.40329316138353e+16
tp140
(F0.0260000228881836
F2.35627446366372e+16
tp141
(F0.0279998779296875
F2.4413283452715e+16
tp142
(F0.0300002098083496
F2.41285786605978e+16
tp143
(F0.0320000648498535
F2.13911361573356e+16
tp144
(F0.0320000648498535
F2.13857287935099e+16
tp145
(F0.0339999198913574
F1.93227550695096e+16
tp146
(F0.0359997749328613
F1.72041121269023e+16
tp147
(F0.0380001068115234
F1.53326724694671e+16
tp148
(F0.0399999618530273
F1.36272472566661e+16
tp149
(F0.0419998168945313
F1.19902881175306e+16
tp150
(F0.0440001487731934
F1.07658670296269e+16
tp151
(F0.0460000038146973
F9.77785704782234e+15
tp152
(F0.0479998588562012
F8.96587576377344e+15
tp153
(F0.0500001907348633
F8.24834295804723e+15
tp154
(F0.0520000457763672
F7.53098141414195e+15
tp155
(F0.0539999008178711
F6.7343116885033e+15
tp156
(F0.0560002326965332
F6.11192690389811e+15
tp157
(F0.0580000877380371
F5.68320219466957e+15
tp158
(F0.059999942779541
F5.25447802231194e+15
tp159
(F0.0619997978210449
F4.8257538499543e+15
tp160
(F0.064000129699707
F4.39934627558195e+15
tp161
(F0.0659999847412109
F4.06956902291866e+15
tp162
(F0.0679998397827148
F3.81129223831552e+15
tp163
(F0.070000171661377
F3.55273359648358e+15
tp164
(F0.0720000267028809
F3.29423293671014e+15
tp165
(F0.0739998817443848
F3.0357322769367e+15
tp166
(F0.0760002136230469
F2.80779567818342e+15
tp167
(F0.0780000686645508
F2.66720233966797e+15
tp168
(F0.0799999237060547
F2.51145689340314e+15
tp169
(F0.0819997787475586
F2.35184892936192e+15
tp170
(F0.0840001106262207
F2.19220298170368e+15
tp171
(F0.0859999656677246
F2.04752566616064e+15
tp172
(F0.0879998207092285
F1.95259655415398e+15
tp173
(F0.0900001525878906
F1.85764449091584e+15
tp174
(F0.0920000076293945
F1.76271524469146e+15
tp175
(F0.0939998626708984
F1.66778599846707e+15
tp176
(F0.0960001945495605
F1.57283406944666e+15
tp177
(F0.0980000495910645
F1.46799512571085e+15
tp178
(F0.0999999046325684
F1.36122143342592e+15
tp179
(F0.10200023651123
F1.2634173776855e+15
tp180
(F0.104000091552734
F1.219267395584e+15
tp181
(F0.105999946594238
F1.1751174134825e+15
tp182
(F0.107999801635742
F1.13096756559872e+15
tp183
(F0.110000133514404
F1.08680704740557e+15
tp184
(F0.111999988555908
F1.04265713241293e+15
tp185
(F0.113999843597412
F998507150311424.0
tp186
(F0.116000175476074
F954346699227136.0
tp187
(F0.118000030517578
F912580222648320.0
tp188
(F0.119999885559082
F877956679335936.0
tp189
tp190
a((F0.0
F7.03301538965094e+15
tp191
(F0.00199985504150391
F7.28938789312922e+15
tp192
(F0.00400018692016602
F7.79502902417818e+15
tp193
(F0.00600004196166992
F8.43266523765146e+15
tp194
(F0.00799989700317383
F9.26722945974272e+15
tp195
(F0.0100002288818359
F1.05451776513147e+16
tp196
(F0.0100002288818359
F1.05455620508877e+16
tp197
(F0.0120000839233398
F1.2158479036842e+16
tp198
(F0.0139999389648438
F1.42816961196196e+16
tp199
(F0.0159997940063477
F1.6184126113579e+16
tp200
(F0.0180001258850098
F1.74275202195128e+16
tp201
(F0.0199999809265137
F1.78651140362076e+16
tp202
(F0.0219998359680176
F1.89932709483643e+16
tp203
(F0.0240001678466797
F2.11099983355576e+16
tp204
(F0.0260000228881836
F3.36093603367485e+16
tp205
(F0.0279998779296875
F3.50998621648323e+16
tp206
(F0.0300002098083496
F3.49903404987843e+16
tp207
(F0.0320000648498535
F3.12403680454246e+16
tp208
(F0.0320000648498535
F3.12329635218063e+16
tp209
(F0.0339999198913574
F2.8220924431958e+16
tp210
(F0.0359997749328613
F2.51218220600525e+16
tp211
(F0.0380001068115234
F2.23763329355612e+16
tp212
(F0.0399999618530273
F1.98794601404826e+16
tp213
(F0.0419998168945313
F1.7477985011499e+16
tp214
(F0.0440001487731934
F1.56901705148006e+16
tp215
(F0.0460000038146973
F1.42466599239025e+16
tp216
(F0.0479998588562012
F1.30597414166856e+16
tp217
(F0.0500001907348633
F1.20131158687089e+16
tp218
(F0.0520000457763672
F1.09667383550935e+16
tp219
(F0.0539999008178711
F9.80317588003226e+15
tp220
(F0.0560002326965332
F8.89484881585766e+15
tp221
(F0.0580000877380371
F8.27027091357696e+15
tp222
(F0.059999942779541
F7.64569247442534e+15
tp223
(F0.0619997978210449
F7.02111457214464e+15
tp224
(F0.064000129699707
F6.39986741700198e+15
tp225
(F0.0659999847412109
F5.91932285360538e+15
tp226
(F0.0679998397827148
F5.5433398059008e+15
tp227
(F0.070000171661377
F5.166979874816e+15
tp228
(F0.0720000267028809
F4.79070423246438e+15
tp229
(F0.0739998817443848
F4.41442885854822e+15
tp230
(F0.0760002136230469
F4.08267726310605e+15
tp231
(F0.0780000686645508
F3.87816031571149e+15
tp232
(F0.0799999237060547
F3.65154254035354e+15
tp233
(F0.0819997787475586
F3.41929003633869e+15
tp234
(F0.0840001106262207
F3.1869822346199e+15
tp235
(F0.0859999656677246
F2.976479444992e+15
tp236
(F0.0879998207092285
F2.8384456385495e+15
tp237
(F0.0900001525878906
F2.70037854611046e+15
tp238
(F0.0920000076293945
F2.56234473966797e+15
tp239
(F0.0939998626708984
F2.42431066479002e+15
tp240
(F0.0960001945495605
F2.28624384078643e+15
tp241
(F0.0980000495910645
F2.13378484980941e+15
tp242
(F0.0999999046325684
F1.9785092998103e+15
tp243
(F0.10200023651123
F1.83628172623872e+15
tp244
(F0.104000091552734
F1.77210364054733e+15
tp245
(F0.105999946594238
F1.70792555485594e+15
tp246
(F0.107999801635742
F1.64374733494682e+15
tp247
(F0.110000133514404
F1.57955394843443e+15
tp248
(F0.111999988555908
F1.51537572852531e+15
tp249
(F0.113999843597412
F1.45119777705165e+15
tp250
(F0.116000175476074
F1.38700412210381e+15
tp251
(F0.118000030517578
F1.32629100127846e+15
tp252
(F0.119999885559082
F1.27596123232666e+15
tp253
tp254
a((F0.0
F8.7593753467945e+15
tp255
(F0.00199985504150391
F9.11283290164429e+15
tp256
(F0.00400018692016602
F9.83070017794867e+15
tp257
(F0.00600004196166992
F1.07911472071311e+16
tp258
(F0.00799989700317383
F1.20531589225513e+16
tp259
(F0.0100002288818359
F1.38556267739218e+16
tp260
(F0.0100002288818359
F1.3856144317481e+16
tp261
(F0.0120000839233398
F1.60279170792817e+16
tp262
(F0.0139999389648438
F1.87528193517814e+16
tp263
(F0.0159997940063477
F2.11387466991534e+16
tp264
(F0.0180001258850098
F2.27146582468854e+16
tp265
(F0.0199999809265137
F2.34288082289951e+16
tp266
(F0.0199999809265137
F2.34292463156593e+16
tp267
(F0.0219998359680176
F2.52696677192827e+16
tp268
(F0.0240001678466797
F2.80487907326689e+16
tp269
(F0.0260000228881836
F4.28519538640814e+16
tp270
(F0.0279998779296875
F4.50154147904225e+16
tp271
(F0.0300002098083496
F4.5187655863894e+16
tp272
(F0.0320000648498535
F4.06305881886556e+16
tp273
(F0.0320000648498535
F4.06215859372032e+16
tp274
(F0.0339999198913574
F3.67196811632312e+16
tp275
(F0.0359997749328613
F3.26913067822612e+16
tp276
(F0.0380001068115234
F2.91087585965507e+16
tp277
(F0.0399999618530273
F2.58536801923236e+16
tp278
(F0.0419998168945313
F2.27172438171976e+16
tp279
(F0.0440001487731934
F2.03908533064827e+16
tp280
(F0.0460000038146973
F1.8511504466772e+16
tp281
(F0.0479998588562012
F1.6965548168446e+16
tp282
(F0.0500001907348633
F1.56045353093693e+16
tp283
(F0.0520000457763672
F1.42438488678072e+16
tp284
(F0.0539999008178711
F1.2729191069909e+16
tp285
(F0.0560002326965332
F1.15474641044111e+16
tp286
(F0.0580000877380371
F1.07360041220178e+16
tp287
(F0.059999942779541
F9.92454413962445e+15
tp288
(F0.0619997978210449
F9.11308630471475e+15
tp289
(F0.064000129699707
F8.30591162594099e+15
tp290
(F0.0659999847412109
F7.68145559335731e+15
tp291
(F0.0679998397827148
F7.19324343959552e+15
tp292
(F0.070000171661377
F6.70457601930035e+15
tp293
(F0.0720000267028809
F6.21601812067123e+15
tp294
(F0.0739998817443848
F5.72746075891302e+15
tp295
(F0.0760002136230469
F5.29674640608461e+15
tp296
(F0.0780000686645508
F5.03132923835187e+15
tp297
(F0.0799999237060547
F4.73716853886157e+15
tp298
(F0.0819997787475586
F4.43568008829338e+15
tp299
(F0.0840001106262207
F4.13412023389389e+15
tp300
(F0.0859999656677246
F3.86088810473062e+15
tp301
(F0.0879998207092285
F3.68180541679206e+15
tp302
(F0.0900001525878906
F3.50267951074509e+15
tp303
(F0.0920000076293945
F3.32359655437107e+15
tp304
(F0.0939998626708984
F3.1445133295616e+15
tp305
(F0.0960001945495605
F2.96538769195008e+15
tp306
(F0.0980000495910645
F2.7675738463273e+15
tp307
(F0.0999999046325684
F2.56610283605197e+15
tp308
(F0.10200023651123
F2.38156553964749e+15
tp309
(F0.104000091552734
F2.29832048351642e+15
tp310
(F0.105999946594238
F2.21507556160307e+15
tp311
(F0.107999801635742
F2.13183037125427e+15
tp312
(F0.110000133514404
F2.04856545089946e+15
tp313
(F0.111999988555908
F1.96532039476838e+15
tp314
(F0.113999843597412
F1.88207533863731e+15
tp315
(F0.116000175476074
F1.7988104182825e+15
tp316
(F0.118000030517578
F1.72005950855578e+15
tp317
(F0.119999885559082
F1.65477734783386e+15
tp318
tp319
a((F0.0
F1.01123222572892e+16
tp320
(F0.00199985504150391
F1.05771891163136e+16
tp321
(F0.00400018692016602
F1.15442879760957e+16
tp322
(F0.00600004196166992
F1.28887544736645e+16
tp323
(F0.00799989700317383
F1.46459555172188e+16
tp324
(F0.0100002288818359
F1.70103328661832e+16
tp325
(F0.0100002288818359
F1.70109814062449e+16
tp326
(F0.0120000839233398
F1.97348421491753e+16
tp327
(F0.0139999389648438
F2.30333512626995e+16
tp328
(F0.0159997940063477
F2.58892167517307e+16
tp329
(F0.0180001258850098
F2.78233178345308e+16
tp330
(F0.0199999809265137
F2.88925327630008e+16
tp331
(F0.0199999809265137
F2.88931383533896e+16
tp332
(F0.0219998359680176
F3.14357461077197e+16
tp333
(F0.0240001678466797
F3.47833037477642e+16
tp334
(F0.0260000228881836
F5.14183863950377e+16
tp335
(F0.0279998779296875
F5.42598551536927e+16
tp336
(F0.0300002098083496
F5.47862764102615e+16
tp337
(F0.0320000648498535
F4.9601924466475e+16
tp338
(F0.0320000648498535
F4.95916852644413e+16
tp339
(F0.0339999198913574
F4.48608646872433e+16
tp340
(F0.0359997749328613
F3.99541866741105e+16
tp341
(F0.0380001068115234
F3.55704402566185e+16
tp342
(F0.0399999618530273
F3.15874357626798e+16
tp343
(F0.0419998168945313
F2.77430663706051e+16
tp344
(F0.0440001487731934
F2.48997722508493e+16
tp345
(F0.0460000038146973
F2.26018165711176e+16
tp346
(F0.0479998588562012
F2.07107918628127e+16
tp347
(F0.0500001907348633
F1.90480940584141e+16
tp348
(F0.0520000457763672
F1.73857913910067e+16
tp349
(F0.0539999008178711
F1.55338014929715e+16
tp350
(F0.0560002326965332
F1.40895328403456e+16
tp351
(F0.0580000877380371
F1.30988621263012e+16
tp352
(F0.059999942779541
F1.21081914122568e+16
tp353
(F0.0619997978210449
F1.11175217719542e+16
tp354
(F0.064000129699707
F1.01320393784033e+16
tp355
(F0.0659999847412109
F9.36954094944256e+15
tp356
(F0.0679998397827148
F8.77375704478515e+15
tp357
(F0.070000171661377
F8.17744808037581e+15
tp358
(F0.0720000267028809
F7.5812749443072e+15
tp359
(F0.0739998817443848
F6.98510180823859e+15
tp360
(F0.0760002136230469
F6.45954330322534e+15
tp361
(F0.0780000686645508
F6.1357811522601e+15
tp362
(F0.0799999237060547
F5.77689851684454e+15
tp363
(F0.0819997787475586
F5.40906248522957e+15
tp364
(F0.0840001106262207
F5.04113894365594e+15
tp365
(F0.0859999656677246
F4.70780008936243e+15
tp366
(F0.0879998207092285
F4.48940127079629e+15
tp367
(F0.0900001525878906
F4.27095037575168e+15
tp368
(F0.0920000076293945
F4.05255128875008e+15
tp369
(F0.0939998626708984
F3.83415220174848e+15
tp370
(F0.0960001945495605
F3.61570130670387e+15
tp371
(F0.0980000495910645
F3.37444440375296e+15
tp372
(F0.0999999046325684
F3.12872422447514e+15
tp373
(F0.10200023651123
F2.90366015353651e+15
tp374
(F0.104000091552734
F2.80215692299469e+15
tp375
(F0.105999946594238
F2.70065396088832e+15
tp376
(F0.107999801635742
F2.59915099878195e+15
tp377
(F0.110000133514404
F2.49762360904909e+15
tp378
(F0.111999988555908
F2.39612037850726e+15
tp379
(F0.113999843597412
F2.2946174164009e+15
tp380
(F0.116000175476074
F2.19309002666803e+15
tp381
(F0.118000030517578
F2.09706704017818e+15
tp382
(F0.119999885559082
F2.01746666645094e+15
tp383
tp384
a((F0.0
F1.11193095520911e+16
tp385
(F0.00199985504150391
F1.17142827816714e+16
tp386
(F0.00400018692016602
F1.29727511490724e+16
tp387
(F0.00600004196166992
F1.47581690540196e+16
tp388
(F0.00799989700317383
F1.70647597654999e+16
tp389
(F0.0100002288818359
F2.00161259998413e+16
tp390
(F0.0100002288818359
F2.00169033889219e+16
tp391
(F0.0120000839233398
F2.32788558883062e+16
tp392
(F0.0139999389648438
F2.71299469041992e+16
tp393
(F0.0159997940063477
F3.0449866429694e+16
tp394
(F0.0180001258850098
F3.27618494726144e+16
tp395
(F0.0199999809265137
F3.42300453880463e+16
tp396
(F0.0199999809265137
F3.4230809892225e+16
tp397
(F0.0219998359680176
F3.74378641196319e+16
tp398
(F0.0240001678466797
F4.12771654502973e+16
tp399
(F0.0260000228881836
F5.93962795574231e+16
tp400
(F0.0279998779296875
F6.29073036527534e+16
tp401
(F0.0300002098083496
F6.38391440522609e+16
tp402
(F0.0320000648498535
F5.81836642608742e+16
tp403
(F0.0320000648498535
F5.81724973459046e+16
tp404
(F0.0339999198913574
F5.26742606021919e+16
tp405
(F0.0359997749328613
F4.69398736716431e+16
tp406
(F0.0380001068115234
F4.17901434592297e+16
tp407
(F0.0399999618530273
F3.71074308107141e+16
tp408
(F0.0419998168945313
F3.25803398597181e+16
tp409
(F0.0440001487731934
F2.92395403507139e+16
tp410
(F0.0460000038146973
F2.65384461556777e+16
tp411
(F0.0479998588562012
F2.43149093742838e+16
tp412
(F0.0500001907348633
F2.2361783733846e+16
tp413
(F0.0520000457763672
F2.04091262448435e+16
tp414
(F0.0539999008178711
F1.82320953693307e+16
tp415
(F0.0560002326965332
F1.65349433372836e+16
tp416
(F0.0580000877380371
F1.53718082114683e+16
tp417
(F0.059999942779541
F1.4208673085653e+16
tp418
(F0.0619997978210449
F1.30455401073213e+16
tp419
(F0.064000129699707
F1.18884544429425e+16
tp420
(F0.0659999847412109
F1.09930858319708e+16
tp421
(F0.0679998397827148
F1.02938061003817e+16
tp422
(F0.070000171661377
F9.5939411794985e+15
tp423
(F0.0720000267028809
F8.89423517240525e+15
tp424
(F0.0739998817443848
F8.19453023905382e+15
tp425
(F0.0760002136230469
F7.57773105941709e+15
tp426
(F0.0780000686645508
F7.19785301324595e+15
tp427
(F0.0799999237060547
F6.77671214252032e+15
tp428
(F0.0819997787475586
F6.34505182314496e+15
tp429
(F0.0840001106262207
F5.9132884245545e+15
tp430
(F0.0859999656677246
F5.52213072052224e+15
tp431
(F0.0879998207092285
F5.26592411015578e+15
tp432
(F0.0900001525878906
F5.00965683337626e+15
tp433
(F0.0920000076293945
F4.75344968613888e+15
tp434
(F0.0939998626708984
F4.49724307577242e+15
tp435
(F0.0960001945495605
F4.24097526212198e+15
tp436
(F0.0980000495910645
F3.95793852792832e+15
tp437
(F0.0999999046325684
F3.66966327581082e+15
tp438
(F0.10200023651123
F3.40562532945101e+15
tp439
(F0.104000091552734
F3.28656642008678e+15
tp440
(F0.105999946594238
F3.16750831602893e+15
tp441
(F0.107999801635742
F3.04844967510016e+15
tp442
(F0.110000133514404
F2.92936284844851e+15
tp443
(F0.111999988555908
F2.8103044759552e+15
tp444
(F0.113999843597412
F2.69124610346189e+15
tp445
(F0.116000175476074
F2.57215927681024e+15
tp446
(F0.118000030517578
F2.45952859131085e+15
tp447
(F0.119999885559082
F2.36616137100493e+15
tp448
tp449
a((F0.0
F1.18244937899704e+16
tp450
(F0.00199985504150391
F1.25711931817329e+16
tp451
(F0.00400018692016602
F1.41644113001841e+16
tp452
(F0.00600004196166992
F1.64397861893571e+16
tp453
(F0.00799989700317383
F1.93344717402931e+16
tp454
(F0.0100002288818359
F2.28854519163781e+16
tp455
(F0.0100002288818359
F2.28863517120266e+16
tp456
(F0.0120000839233398
F2.6667146998186e+16
tp457
(F0.0139999389648438
F3.10520981540045e+16
tp458
(F0.0159997940063477
F3.48302284129567e+16
tp459
(F0.0180001258850098
F3.75299911681311e+16
tp460
(F0.0199999809265137
F3.94161346461041e+16
tp461
(F0.0199999809265137
F3.94170494741381e+16
tp462
(F0.0219998359680176
F4.32422117724652e+16
tp463
(F0.0240001678466797
F4.7511697027498e+16
tp464
(F0.0260000228881836
F6.68508824943985e+16
tp465
(F0.0279998779296875
F7.10164553106719e+16
tp466
(F0.0300002098083496
F7.23908147806208e+16
tp467
(F0.0320000648498535
F6.63993611725046e+16
tp468
(F0.0320000648498535
F6.63875285376041e+16
tp469
(F0.0339999198913574
F6.01829328824566e+16
tp470
(F0.0359997749328613
F5.36707875041444e+16
tp471
(F0.0380001068115234
F4.77898648793907e+16
tp472
(F0.0399999618530273
F4.24341050857882e+16
tp473
(F0.0419998168945313
F3.724810387456e+16
tp474
(F0.0440001487731934
F3.34274427019592e+16
tp475
(F0.0460000038146973
F3.03372996318331e+16
tp476
(F0.0479998588562012
F2.77927140450632e+16
tp477
(F0.0500001907348633
F2.5559313871274e+16
tp478
(F0.0520000457763672
F2.33264484209132e+16
tp479
(F0.0539999008178711
F2.08355305979904e+16
tp480
(F0.0560002326965332
F1.88942182651003e+16
tp481
(F0.0580000877380371
F1.75646617464996e+16
tp482
(F0.059999942779541
F1.62351041541571e+16
tp483
(F0.0619997978210449
F1.49055476355564e+16
tp484
(F0.064000129699707
F1.35828695070802e+16
tp485
(F0.0659999847412109
F1.25592617625846e+16
tp486
(F0.0679998397827148
F1.17601261888471e+16
tp487
(F0.070000171661377
F1.09603485174989e+16
tp488
(F0.0720000267028809
F1.01607544560026e+16
tp489
(F0.0739998817443848
F9.36115932076442e+15
tp490
(F0.0760002136230469
F8.65633156517069e+15
tp491
(F0.0780000686645508
F8.22231921432986e+15
tp492
(F0.0799999237060547
F7.74111268909875e+15
tp493
(F0.0819997787475586
F7.24787434985882e+15
tp494
(F0.0840001106262207
F6.75451897276006e+15
tp495
(F0.0859999656677246
F6.3075798441001e+15
tp496
(F0.0879998207092285
F6.01490412955238e+15
tp497
(F0.0900001525878906
F5.72215701117338e+15
tp498
(F0.0920000076293945
F5.42948129662566e+15
tp499
(F0.0939998626708984
F5.13680450833613e+15
tp500
(F0.0960001945495605
F4.84405846369894e+15
tp501
(F0.0980000495910645
F4.52071936701235e+15
tp502
(F0.0999999046325684
F4.19139362278605e+15
tp503
(F0.10200023651123
F3.88975941176525e+15
tp504
(F0.104000091552734
F3.75376813070746e+15
tp505
(F0.105999946594238
F3.61777738652058e+15
tp506
(F0.107999801635742
F3.48178637389824e+15
tp507
(F0.110000133514404
F3.34576288058573e+15
tp508
(F0.111999988555908
F3.20977186796339e+15
tp509
(F0.113999843597412
F3.07378139221197e+15
tp510
(F0.116000175476074
F2.937757630464e+15
tp511
(F0.118000030517578
F2.80910886443418e+15
tp512
(F0.119999885559082
F2.70246267899085e+15
tp513
tp514
a((F0.0
F1.22775677425418e+16
tp515
(F0.00199985504150391
F1.31990712295096e+16
tp516
(F0.00400018692016602
F1.51682632688599e+16
tp517
(F0.00600004196166992
F1.79725096934441e+16
tp518
(F0.00799989700317383
F2.14785602166456e+16
tp519
(F0.0100002288818359
F2.56305845585838e+16
tp520
(F0.0100002288818359
F2.56316046133166e+16
tp521
(F0.0120000839233398
F2.9908505129386e+16
tp522
(F0.0139999389648438
F3.48085495655301e+16
tp523
(F0.0159997940063477
F3.90364165874647e+16
tp524
(F0.0180001258850098
F4.21250349442007e+16
tp525
(F0.0199999809265137
F4.44319563681628e+16
tp526
(F0.0199999809265137
F4.4433004340183e+16
tp527
(F0.0219998359680176
F4.88292641448919e+16
tp528
(F0.0240001678466797
F5.34791503583642e+16
tp529
(F0.0260000228881836
F7.38337004537774e+16
tp530
(F0.0279998779296875
F7.86357573585469e+16
tp531
(F0.0300002098083496
F8.04798101570191e+16
tp532
(F0.0320000648498535
F7.42691585979843e+16
tp533
(F0.0320000648498535
F7.42568921713869e+16
tp534
(F0.0339999198913574
F6.74057836791071e+16
tp535
(F0.0359997749328613
F6.0164932674519e+16
tp536
(F0.0380001068115234
F5.35872246204334e+16
tp537
(F0.0399999618530273
F4.75838782478746e+16
tp538
(F0.0419998168945313
F4.17616334663188e+16
tp539
(F0.0440001487731934
F3.74773434590167e+16
tp540
(F0.0460000038146973
F3.40111351999365e+16
tp541
(F0.0479998588562012
F3.11560664273388e+16
tp542
(F0.0500001907348633
F2.86516366373028e+16
tp543
(F0.0520000457763672
F2.61478059952046e+16
tp544
(F0.0539999008178711
F2.33532275420037e+16
tp545
(F0.0560002326965332
F2.11757306625393e+16
tp546
(F0.0580000877380371
F1.96852288344556e+16
tp547
(F0.059999942779541
F1.81947270063718e+16
tp548
(F0.0619997978210449
F1.670422625203e+16
tp549
(F0.064000129699707
F1.52214027517297e+16
tp550
(F0.0659999847412109
F1.4073766015402e+16
tp551
(F0.0679998397827148
F1.31780634707231e+16
tp552
(F0.070000171661377
F1.22816629938586e+16
tp553
(F0.0720000267028809
F1.13854686754243e+16
tp554
(F0.0739998817443848
F1.048927435699e+16
tp555
(F0.0760002136230469
F9.69931820210586e+15
tp556
(F0.0780000686645508
F9.21295825299046e+15
tp557
(F0.0799999237060547
F8.6736639056937e+15
tp558
(F0.0819997787475586
F8.1208747711529e+15
tp559
(F0.0840001106262207
F7.56795410323866e+15
tp560
(F0.0859999656677246
F7.06707018534093e+15
tp561
(F0.0879998207092285
F6.73912849432576e+15
tp562
(F0.0900001525878906
F6.41110788328653e+15
tp563
(F0.0920000076293945
F6.08316619227136e+15
tp564
(F0.0939998626708984
F5.75522396438528e+15
tp565
(F0.0960001945495605
F5.42720389021696e+15
tp566
(F0.0980000495910645
F5.06489172341555e+15
tp567
(F0.0999999046325684
F4.69586920708506e+15
tp568
(F0.10200023651123
F4.35787863477453e+15
tp569
(F0.104000091552734
F4.20551466994893e+15
tp570
(F0.105999946594238
F4.05315124199424e+15
tp571
(F0.107999801635742
F3.9007875456041e+15
tp572
(F0.110000133514404
F3.74838707355648e+15
tp573
(F0.111999988555908
F3.59602310873088e+15
tp574
(F0.113999843597412
F3.44365968077619e+15
tp575
(F0.116000175476074
F3.29125974559949e+15
tp576
(F0.118000030517578
F3.1471214484521e+15
tp577
(F0.119999885559082
F3.02763572671283e+15
tp578
tp579
a((F0.0
F1.25273931052483e+16
tp580
(F0.00199985504150391
F1.36469074694636e+16
tp581
(F0.00400018692016602
F1.60285623981179e+16
tp582
(F0.00600004196166992
F1.93895675807662e+16
tp583
(F0.00799989700317383
F2.3516178601214e+16
tp584
(F0.0100002288818359
F2.82614453009121e+16
tp585
(F0.0100002288818359
F2.82625770247946e+16
tp586
(F0.0120000839233398
F3.30108630865019e+16
tp587
(F0.0139999389648438
F3.84063878348145e+16
tp588
(F0.0159997940063477
F4.30725090246656e+16
tp589
(F0.0180001258850098
F4.65444489176023e+16
tp590
(F0.0199999809265137
F4.92651517858284e+16
tp591
(F0.0199999809265137
F4.92663243119002e+16
tp592
(F0.0219998359680176
F5.41892072366408e+16
tp593
(F0.0240001678466797
F5.91786535645348e+16
tp594
(F0.0260000228881836
F8.03870302734909e+16
tp595
(F0.0279998779296875
F8.5806308338434e+16
tp596
(F0.0300002098083496
F8.81399530489119e+16
tp597
(F0.0320000648498535
F8.18109837308068e+16
tp598
(F0.0320000648498535
F8.179849396591e+16
tp599
(F0.0339999198913574
F7.4358957774209e+16
tp600
(F0.0359997749328613
F6.64372943236628e+16
tp601
(F0.0380001068115234
F5.91968212761969e+16
tp602
(F0.0399999618530273
F5.25703481634324e+16
tp603
(F0.0419998168945313
F4.61335923460669e+16
tp604
(F0.0440001487731934
F4.1400727364436e+16
tp605
(F0.0460000038146973
F3.75705141845688e+16
tp606
(F0.0479998588562012
F3.44147611940291e+16
tp607
(F0.0500001907348633
F3.1647807970476e+16
tp608
(F0.0520000457763672
F2.88815118769193e+16
tp609
(F0.0539999008178711
F2.57927152790405e+16
tp610
(F0.0560002326965332
F2.33863739521106e+16
tp611
(F0.0580000877380371
F2.17399390413783e+16
tp612
(F0.059999942779541
F2.00935019831624e+16
tp613
(F0.0619997978210449
F1.84470670724301e+16
tp614
(F0.064000129699707
F1.68090825098527e+16
tp615
(F0.0659999847412109
F1.55412672198738e+16
tp616
(F0.0679998397827148
F1.45519945176842e+16
tp617
(F0.070000171661377
F1.35619744911852e+16
tp618
(F0.0720000267028809
F1.25721810242109e+16
tp619
(F0.0739998817443848
F1.15823886309786e+16
tp620
(F0.0760002136230469
F1.07099487029166e+16
tp621
(F0.0780000686645508
F1.01728641162936e+16
tp622
(F0.0799999237060547
F9.57728422258278e+15
tp623
(F0.0819997787475586
F8.96679005493658e+15
tp624
(F0.0840001106262207
F8.35615093214413e+15
tp625
(F0.0859999656677246
F7.80299457789952e+15
tp626
(F0.0879998207092285
F7.44088105333555e+15
tp627
(F0.0900001525878906
F7.07868055568384e+15
tp628
(F0.0920000076293945
F6.71656649424896e+15
tp629
(F0.0939998626708984
F6.35445243281408e+15
tp630
(F0.0960001945495605
F5.99225247203328e+15
tp631
(F0.0980000495910645
F5.59217573153997e+15
tp632
(F0.0999999046325684
F5.18468641436467e+15
tp633
(F0.10200023651123
F4.81146717811507e+15
tp634
(F0.104000091552734
F4.64323814096896e+15
tp635
(F0.105999946594238
F4.47500990912922e+15
tp636
(F0.107999801635742
F4.30678167728947e+15
tp637
(F0.110000133514404
F4.13851291169587e+15
tp638
(F0.111999988555908
F3.97028441142067e+15
tp639
(F0.113999843597412
F3.80205591114547e+15
tp640
(F0.116000175476074
F3.63378714555187e+15
tp641
(F0.118000030517578
F3.47464142736589e+15
tp642
(F0.119999885559082
F3.34271345380557e+15
tp643
tp644
a((F0.0
F1.26187416909251e+16
tp645
(F0.00199985504150391
F1.3958436479828e+16
tp646
(F0.00400018692016602
F1.6782548201898e+16
tp647
(F0.00600004196166992
F2.07172257238221e+16
tp648
(F0.00799989700317383
F2.54616141027082e+16
tp649
(F0.0100002288818359
F3.07852410984858e+16
tp650
(F0.0100002288818359
F3.07864801965507e+16
tp651
(F0.0120000839233398
F3.59805903060337e+16
tp652
(F0.0139999389648438
F4.18511577646367e+16
tp653
(F0.0159997940063477
F4.69416088384307e+16
tp654
(F0.0180001258850098
F5.07868544038339e+16
tp655
(F0.0199999809265137
F5.39086685628006e+16
tp656
(F0.0199999809265137
F5.39099570529894e+16
tp657
(F0.0219998359680176
F5.93186995631555e+16
tp658
(F0.0240001678466797
F6.46137285191926e+16
tp659
(F0.0260000228881836
F8.65466404411802e+16
tp660
(F0.0279998779296875
F9.25636920543805e+16
tp661
(F0.0300002098083496
F9.54013254072402e+16
tp662
(F0.0320000648498535
F8.90412003963699e+16
tp663
(F0.0320000648498535
F8.90286419119964e+16
tp664
(F0.0339999198913574
F8.10565984950682e+16
tp665
(F0.0359997749328613
F7.25006972239217e+16
tp666
(F0.0380001068115234
F6.46310372373955e+16
tp667
(F0.0399999618530273
F5.7405038229717e+16
tp668
(F0.0419998168945313
F5.03746921622405e+16
tp669
(F0.0440001487731934
F4.5207331109077e+16
tp670
(F0.0460000038146973
F4.1024380855124e+16
tp671
(F0.0479998588562012
F3.75771112543355e+16
tp672
(F0.0500001907348633
F3.45554922399334e+16
tp673
(F0.0520000457763672
F3.15345904850698e+16
tp674
(F0.0539999008178711
F2.81603460657316e+16
tp675
(F0.0560002326965332
F2.55319613720494e+16
tp676
(F0.0580000877380371
F2.37342040260608e+16
tp677
(F0.059999942779541
F2.19364488275558e+16
tp678
(F0.0619997978210449
F2.01386936290509e+16
tp679
(F0.064000129699707
F1.83501361030103e+16
tp680
(F0.0659999847412109
F1.69656920498504e+16
tp681
(F0.0679998397827148
F1.58856065591542e+16
tp682
(F0.070000171661377
F1.48047222045409e+16
tp683
(F0.0720000267028809
F1.37240869580308e+16
tp684
(F0.0739998817443848
F1.26434495640371e+16
tp685
(F0.0760002136230469
F1.16909525193196e+16
tp686
(F0.0780000686645508
F1.11046357963244e+16
tp687
(F0.0799999237060547
F1.04544206973829e+16
tp688
(F0.0819997787475586
F9.78791693497139e+15
tp689
(F0.0840001106262207
F9.1212531850281e+15
tp690
(F0.0859999656677246
F8.5173587715031e+15
tp691
(F0.0879998207092285
F8.1220741407703e+15
tp692
(F0.0900001525878906
F7.72669609449882e+15
tp693
(F0.0920000076293945
F7.33141146376602e+15
tp694
(F0.0939998626708984
F6.93612736990413e+15
tp695
(F0.0960001945495605
F6.54074824989082e+15
tp696
(F0.0980000495910645
F6.10401342665523e+15
tp697
(F0.0999999046325684
F5.65918473755034e+15
tp698
(F0.10200023651123
F5.25176897168998e+15
tp699
(F0.104000091552734
F5.06813979243315e+15
tp700
(F0.105999946594238
F4.88451168691814e+15
tp701
(F0.107999801635742
F4.70088304453222e+15
tp702
(F0.110000133514404
F4.51721091560243e+15
tp703
(F0.111999988555908
F4.33358227321651e+15
tp704
(F0.113999843597412
F4.14995336239514e+15
tp705
(F0.116000175476074
F3.96628096502989e+15
tp706
(F0.118000030517578
F3.79256644934042e+15
tp707
(F0.119999885559082
F3.6485612961792e+15
tp708
tp709
a((F0.0
F1.25909199665234e+16
tp710
(F0.00199985504150391
F1.4170957904085e+16
tp711
(F0.00400018692016602
F1.74600299007181e+16
tp712
(F0.00600004196166992
F2.19750927958016e+16
tp713
(F0.00799989700317383
F2.73248654049935e+16
tp714
(F0.0100002288818359
F3.32069047212442e+16
tp715
(F0.0100002288818359
F3.32082447510405e+16
tp716
(F0.0120000839233398
F3.88226689500447e+16
tp717
(F0.0139999389648438
F4.51473218260173e+16
tp718
(F0.0159997940063477
F5.06464905776333e+16
tp719
(F0.0180001258850098
F5.48522771726991e+16
tp720
(F0.0199999809265137
F5.83595259917763e+16
tp721
(F0.0199999809265137
F5.83609218561475e+16
tp722
(F0.0219998359680176
F6.42187418518159e+16
tp723
(F0.0240001678466797
F6.97907618387067e+16
tp724
(F0.0260000228881836
F9.23434633113108e+16
tp725
(F0.0279998779296875
F9.89391157387592e+16
tp726
(F0.0300002098083496
F1.02290899626623e+17
tp727
(F0.0320000648498535
F9.59749268795556e+16
tp728
(F0.0320000648498535
F9.59624457045934e+16
tp729
(F0.0339999198913574
F8.75113759952077e+16
tp730
(F0.0359997749328613
F7.83663254701343e+16
tp731
(F0.0380001068115234
F6.99005326128579e+16
tp732
(F0.0399999618530273
F6.20978912960184e+16
tp733
(F0.0419998168945313
F5.44941799794278e+16
tp734
(F0.0440001487731934
F4.89055685338726e+16
tp735
(F0.0460000038146973
F4.43804683002184e+16
tp736
(F0.0479998588562012
F4.06502806137078e+16
tp737
(F0.0500001907348633
F3.73812951053763e+16
tp738
(F0.0520000457763672
F3.41130955760599e+16
tp739
(F0.0539999008178711
F3.04615788055101e+16
tp740
(F0.0560002326965332
F2.76174836743537e+16
tp741
(F0.0580000877380371
F2.56726773855683e+16
tp742
(F0.059999942779541
F2.37278710967828e+16
tp743
(F0.0619997978210449
F2.17830648079974e+16
tp744
(F0.064000129699707
F1.98481863361167e+16
tp745
(F0.0659999847412109
F1.83504045384663e+16
tp746
(F0.0679998397827148
F1.71820521011282e+16
tp747
(F0.070000171661377
F1.60128503340073e+16
tp748
(F0.0720000267028809
F1.48439159286006e+16
tp749
(F0.0739998817443848
F1.3674980449452e+16
tp750
(F0.0760002136230469
F1.26446693347492e+16
tp751
(F0.0780000686645508
F1.20104905699492e+16
tp752
(F0.0799999237060547
F1.13071682003927e+16
tp753
(F0.0819997787475586
F1.05862149900861e+16
tp754
(F0.0840001106262207
F9.86509105482957e+15
tp755
(F0.0859999656677246
F9.21187377374822e+15
tp756
(F0.0879998207092285
F8.78434145481523e+15
tp757
(F0.0900001525878906
F8.35670713040896e+15
tp758
(F0.0920000076293945
F7.92917481147597e+15
tp759
(F0.0939998626708984
F7.50164249254298e+15
tp760
(F0.0960001945495605
F7.07400763126579e+15
tp761
(F0.0980000495910645
F6.60163424314982e+15
tp762
(F0.0999999046325684
F6.12050556420096e+15
tp763
(F0.10200023651123
F5.67984299337318e+15
tp764
(F0.104000091552734
F5.48124209499341e+15
tp765
(F0.105999946594238
F5.28264173348454e+15
tp766
(F0.107999801635742
F5.08404029823386e+15
tp767
(F0.110000133514404
F4.88539269208474e+15
tp768
(F0.111999988555908
F4.68679179370496e+15
tp769
(F0.113999843597412
F4.48819089532518e+15
tp770
(F0.116000175476074
F4.28954275230515e+15
tp771
(F0.118000030517578
F4.10166397134438e+15
tp772
(F0.119999885559082
F3.94591745133773e+15
tp773
tp774
a((F0.0
F1.2477441561854e+16
tp775
(F0.00199985504150391
F1.43151850533683e+16
tp776
(F0.00400018692016602
F1.8083886785364e+16
tp777
(F0.00600004196166992
F2.31770308036526e+16
tp778
(F0.00799989700317383
F2.91125897073787e+16
tp779
(F0.0100002288818359
F3.55297669163254e+16
tp780
(F0.0100002288818359
F3.55311992879186e+16
tp781
(F0.0120000839233398
F4.15410568308982e+16
tp782
(F0.0139999389648438
F4.82987326046208e+16
tp783
(F0.0159997940063477
F5.41900490502308e+16
tp784
(F0.0180001258850098
F5.87421044986348e+16
tp785
(F0.0199999809265137
F6.26177713173955e+16
tp786
(F0.0199999809265137
F6.26192659660145e+16
tp787
(F0.0219998359680176
F6.88931995731886e+16
tp788
(F0.0240001678466797
F7.47179139609395e+16
tp789
(F0.0260000228881836
F9.78046688469975e+16
tp790
(F0.0279998779296875
F1.04960307700433e+17
tp791
(F0.0300002098083496
F1.08833010991759e+17
tp792
(F0.0320000648498535
F1.02626285032833e+17
tp793
(F0.0320000648498535
F1.02614035786105e+17
tp794
(F0.0339999198913574
F9.37348265567846e+16
tp795
(F0.0359997749328613
F8.40441262065582e+16
tp796
(F0.0380001068115234
F7.50146618413548e+16
tp797
(F0.0399999618530273
F6.66575831962747e+16
tp798
(F0.0419998168945313
F5.85001088613089e+16
tp799
(F0.0440001487731934
F5.25027668530299e+16
tp800
(F0.0460000038146973
F4.76455153235395e+16
tp801
(F0.0479998588562012
F4.36405141545943e+16
tp802
(F0.0500001907348633
F4.01309890028503e+16
tp803
(F0.0520000457763672
F3.6622301369729e+16
tp804
(F0.0539999008178711
F3.27011787645911e+16
tp805
(F0.0560002326965332
F2.96472852184433e+16
tp806
(F0.0580000877380371
F2.75593985366426e+16
tp807
(F0.059999942779541
F2.54715118548419e+16
tp808
(F0.0619997978210449
F2.33836273205248e+16
tp809
(F0.064000129699707
F2.13063814201999e+16
tp810
(F0.0659999847412109
F1.96983220422574e+16
tp811
(F0.0679998397827148
F1.84440648902902e+16
tp812
(F0.070000171661377
F1.71889068689326e+16
tp813
(F0.0720000267028809
F1.59340366103839e+16
tp814
(F0.0739998817443848
F1.46791684993188e+16
tp815
(F0.0760002136230469
F1.35731210050601e+16
tp816
(F0.0780000686645508
F1.28923558037422e+16
tp817
(F0.0799999237060547
F1.21373370603274e+16
tp818
(F0.0819997787475586
F1.13633861010719e+16
tp819
(F0.0840001106262207
F1.05892526057062e+16
tp820
(F0.0859999656677246
F9.88802403270656e+15
tp821
(F0.0879998207092285
F9.42909818719437e+15
tp822
(F0.0900001525878906
F8.9700617462743e+15
tp823
(F0.0920000076293945
F8.51113590076211e+15
tp824
(F0.0939998626708984
F8.0522089815081e+15
tp825
(F0.0960001945495605
F7.59317254058803e+15
tp826
(F0.0980000495910645
F7.08610440665498e+15
tp827
(F0.0999999046325684
F6.56963619992371e+15
tp828
(F0.10200023651123
F6.09660836616602e+15
tp829
(F0.104000091552734
F5.88343088565453e+15
tp830
(F0.105999946594238
F5.67025447888486e+15
tp831
(F0.107999801635742
F5.45707646150246e+15
tp832
(F0.110000133514404
F5.24384905199616e+15
tp833
(F0.111999988555908
F5.03067157148467e+15
tp834
(F0.113999843597412
F4.81749409097318e+15
tp835
(F0.116000175476074
F4.60426614459597e+15
tp836
(F0.118000030517578
F4.40259810269594e+15
tp837
(F0.119999885559082
F4.23541999036006e+15
tp838
tp839
a((F0.0
F1.23062871151084e+16
tp840
(F0.00199985504150391
F1.44157109104148e+16
tp841
(F0.00400018692016602
F1.86710345845309e+16
tp842
(F0.00600004196166992
F2.43323662688584e+16
tp843
(F0.00799989700317383
F3.0829086272127e+16
tp844
(F0.0100002288818359
F3.77561899157422e+16
tp845
(F0.0100002288818359
F3.7757710334165e+16
tp846
(F0.0120000839233398
F4.41391297928888e+16
tp847
(F0.0139999389648438
F5.13090021679432e+16
tp848
(F0.0159997940063477
F5.75755054816952e+16
tp849
(F0.0180001258850098
F6.24589176569856e+16
tp850
(F0.0199999809265137
F6.66856679874232e+16
tp851
(F0.0199999809265137
F6.66872571253228e+16
tp852
(F0.0219998359680176
F7.33478881129923e+16
tp853
(F0.0240001678466797
F7.9404470605185e+16
tp854
(F0.0260000228881836
F1.02954403354378e+17
tp855
(F0.0279998779296875
F1.10652118620176e+17
tp856
(F0.0300002098083496
F1.15049821533897e+17
tp857
(F0.0320000648498535
F1.09008623614558e+17
tp858
(F0.0320000648498535
F1.08996700785345e+17
tp859
(F0.0339999198913574
F9.97375243892818e+16
tp860
(F0.0359997749328613
F8.95430415551037e+16
tp861
(F0.0380001068115234
F7.99816798500291e+16
tp862
(F0.0399999618530273
F7.10917847420764e+16
tp863
(F0.0419998168945313
F6.2399591273726e+16
tp864
(F0.0440001487731934
F5.60054028772311e+16
tp865
(F0.0460000038146973
F5.08254876346614e+16
tp866
(F0.0479998588562012
F4.6553339499905e+16
tp867
(F0.0500001907348633
F4.2809665616085e+16
tp868
(F0.0520000457763672
F3.90668850854625e+16
tp869
(F0.0539999008178711
F3.48833313886044e+16
tp870
(F0.0560002326965332
F3.1625186377728e+16
tp871
(F0.0580000877380371
F2.93979301546557e+16
tp872
(F0.059999942779541
F2.71706717840998e+16
tp873
(F0.0619997978210449
F2.49434134135439e+16
tp874
(F0.064000129699707
F2.27274894616822e+16
tp875
(F0.0659999847412109
F2.10120065092157e+16
tp876
(F0.0679998397827148
F1.96740511820677e+16
tp877
(F0.070000171661377
F1.83351402246963e+16
tp878
(F0.0720000267028809
F1.69965352837448e+16
tp879
(F0.0739998817443848
F1.56579303427932e+16
tp880
(F0.0760002136230469
F1.4478084572971e+16
tp881
(F0.0780000686645508
F1.37519183461089e+16
tp882
(F0.0799999237060547
F1.29465185625702e+16
tp883
(F0.0819997787475586
F1.21209206215803e+16
tp884
(F0.0840001106262207
F1.12951261858365e+16
tp885
(F0.0859999656677246
F1.05471082391142e+16
tp886
(F0.0879998207092285
F1.00575818253599e+16
tp887
(F0.0900001525878906
F9.56793837374669e+15
tp888
(F0.0920000076293945
F9.07841195999232e+15
tp889
(F0.0939998626708984
F8.58888500936704e+15
tp890
(F0.0960001945495605
F8.09924102088294e+15
tp891
(F0.0980000495910645
F7.55835592507392e+15
tp892
(F0.0999999046325684
F7.00744315437056e+15
tp893
(F0.10200023651123
F6.50286932269466e+15
tp894
(F0.104000091552734
F6.27548301662618e+15
tp895
(F0.105999946594238
F6.04809724742861e+15
tp896
(F0.107999801635742
F5.82071147823104e+15
tp897
(F0.110000133514404
F5.59327148507136e+15
tp898
(F0.111999988555908
F5.36588517900288e+15
tp899
(F0.113999843597412
F5.13849940980531e+15
tp900
(F0.116000175476074
F4.91105887977472e+15
tp901
(F0.118000030517578
F4.69594920085094e+15
tp902
(F0.119999885559082
F4.51762806430106e+15
tp903
tp904
a((F0.0
F1.21003541706834e+16
tp905
(F0.00199985504150391
F1.44916555958845e+16
tp906
(F0.00400018692016602
F1.92334820267786e+16
tp907
(F0.00600004196166992
F2.54470305412547e+16
tp908
(F0.00799989700317383
F3.24770952883732e+16
tp909
(F0.0100002288818359
F3.98880527676867e+16
tp910
(F0.0100002288818359
F3.98896590854554e+16
tp911
(F0.0120000839233398
F4.66199759175025e+16
tp912
(F0.0139999389648438
F5.4181738288513e+16
tp913
(F0.0159997940063477
F6.08065320690647e+16
tp914
(F0.0180001258850098
F6.60063244202803e+16
tp915
(F0.0199999809265137
F7.05671115371971e+16
tp916
(F0.0199999809265137
F7.05687865744425e+16
tp917
(F0.0219998359680176
F7.75898641024942e+16
tp918
(F0.0240001678466797
F8.38603617358316e+16
tp919
(F0.0260000228881836
F1.07814407957905e+17
tp920
(F0.0279998779296875
F1.1603695963734e+17
tp921
(F0.0300002098083496
F1.20961569138934e+17
tp922
(F0.0320000648498535
F1.15134483929235e+17
tp923
(F0.0320000648498535
F1.15122973416882e+17
tp924
(F0.0339999198913574
F1.05529322147676e+17
tp925
(F0.0359997749328613
F9.48711804140257e+16
tp926
(F0.0380001068115234
F8.48089739826299e+16
tp927
(F0.0399999618530273
F7.54073163414897e+16
tp928
(F0.0419998168945313
F6.6198940818604e+16
tp929
(F0.0440001487731934
F5.94192490425221e+16
tp930
(F0.0460000038146973
F5.39257024030966e+16
tp931
(F0.0479998588562012
F4.93936786821612e+16
tp932
(F0.0500001907348633
F4.54218561355776e+16
tp933
(F0.0520000457763672
F4.14509784817992e+16
tp934
(F0.0539999008178711
F3.70117818890322e+16
tp935
(F0.0560002326965332
F3.35545952087572e+16
tp936
(F0.0580000877380371
F3.11914333355377e+16
tp937
(F0.059999942779541
F2.88282736098017e+16
tp938
(F0.0619997978210449
F2.64651117365821e+16
tp939
(F0.064000129699707
F2.41139671818568e+16
tp940
(F0.0659999847412109
F2.22937364194918e+16
tp941
(F0.0679998397827148
F2.08741423539814e+16
tp942
(F0.070000171661377
F1.94535325287055e+16
tp943
(F0.0720000267028809
F1.80332491209441e+16
tp944
(F0.0739998817443848
F1.66129678606664e+16
tp945
(F0.0760002136230469
F1.53611352177377e+16
tp946
(F0.0780000686645508
F1.45906696244429e+16
tp947
(F0.0799999237060547
F1.37361214563942e+16
tp948
(F0.0819997787475586
F1.28601371065713e+16
tp949
(F0.0840001106262207
F1.19839423033508e+16
tp950
(F0.0859999656677246
F1.11902763704648e+16
tp951
(F0.0879998207092285
F1.06708902703268e+16
tp952
(F0.0900001525878906
F1.0151380689879e+16
tp953
(F0.0920000076293945
F9.63199351599923e+15
tp954
(F0.0939998626708984
F9.11260848960307e+15
tp955
(F0.0960001945495605
F8.5930978354135e+15
tp956
(F0.0980000495910645
F8.01921450586931e+15
tp957
(F0.0999999046325684
F7.43469200546202e+15
tp958
(F0.10200023651123
F6.89933560630477e+15
tp959
(F0.104000091552734
F6.65808353519206e+15
tp960
(F0.105999946594238
F6.41683253782118e+15
tp961
(F0.107999801635742
F6.17558046670848e+15
tp962
(F0.110000133514404
F5.9342714872791e+15
tp963
(F0.111999988555908
F5.69301995303731e+15
tp964
(F0.113999843597412
F5.45176788192461e+15
tp965
(F0.116000175476074
F5.21045836562432e+15
tp966
(F0.118000030517578
F4.98223131970765e+15
tp967
(F0.119999885559082
F4.79303532596429e+15
tp968
tp969
a((F0.0
F1.18780831706644e+16
tp970
(F0.00199985504150391
F1.45574748959539e+16
tp971
(F0.00400018692016602
F1.97793895499694e+16
tp972
(F0.00600004196166992
F2.65245369040896e+16
tp973
(F0.00799989700317383
F3.40584464121856e+16
tp974
(F0.0100002288818359
F4.192709278643e+16
tp975
(F0.0100002288818359
F4.192877641361e+16
tp976
(F0.0120000839233398
F4.89866832862249e+16
tp977
(F0.0139999389648438
F5.69207291274854e+16
tp978
(F0.0159997940063477
F6.38872348010742e+16
tp979
(F0.0180001258850098
F6.938872283503e+16
tp980
(F0.0199999809265137
F7.42671485532897e+16
tp981
(F0.0199999809265137
F7.42689008999465e+16
tp982
(F0.0219998359680176
F8.16270216915845e+16
tp983
(F0.0240001678466797
F8.80958093750436e+16
tp984
(F0.0260000228881836
F1.12404293478253e+17
tp985
(F0.0279998779296875
F1.21135206076776e+17
tp986
(F0.0300002098083496
F1.26586782295785e+17
tp987
(F0.0320000648498535
F1.21015720086602e+17
tp988
(F0.0320000648498535
F1.21004724970324e+17
tp989
(F0.0339999198913574
F1.11119393882112e+17
tp990
(F0.0359997749328613
F1.00036024616354e+17
tp991
(F0.0380001068115234
F8.95032100284006e+16
tp992
(F0.0399999618530273
F7.96102940279439e+16
tp993
(F0.0419998168945313
F6.9903813967872e+16
tp994
(F0.0440001487731934
F6.27494636046254e+16
tp995
(F0.0460000038146973
F5.69509055677071e+16
tp996
(F0.0479998588562012
F5.21659512227103e+16
tp997
(F0.0500001907348633
F4.7971636485292e+16
tp998
(F0.0520000457763672
F4.37783181802865e+16
tp999
(F0.0539999008178711
F3.90898631604961e+16
tp1000
(F0.0560002326965332
F3.5438543958442e+16
tp1001
(F0.0580000877380371
F3.29427384627364e+16
tp1002
(F0.059999942779541
F3.04469372619981e+16
tp1003
(F0.0619997978210449
F2.79511317662925e+16
tp1004
(F0.064000129699707
F2.5468009309012e+16
tp1005
(F0.0659999847412109
F2.35455454401004e+16
tp1006
(F0.0679998397827148
F2.20462389290598e+16
tp1007
(F0.070000171661377
F2.05458629711626e+16
tp1008
(F0.0720000267028809
F1.90458306106491e+16
tp1009
(F0.0739998817443848
F1.75457993238774e+16
tp1010
(F0.0760002136230469
F1.62236741724406e+16
tp1011
(F0.0780000686645508
F1.54099485947986e+16
tp1012
(F0.0799999237060547
F1.45074030934753e+16
tp1013
(F0.0819997787475586
F1.35822113033421e+16
tp1014
(F0.0840001106262207
F1.26568004698767e+16
tp1015
(F0.0859999656677246
F1.18185549239419e+16
tp1016
(F0.0879998207092285
F1.12700017008968e+16
tp1017
(F0.0900001525878906
F1.07213196288328e+16
tp1018
(F0.0920000076293945
F1.01727664057876e+16
tp1019
(F0.0939998626708984
F9.62421318274253e+15
tp1020
(F0.0960001945495605
F9.0755300369367e+15
tp1021
(F0.0980000495910645
F8.4694161990615e+15
tp1022
(F0.0999999046325684
F7.85206457925632e+15
tp1023
(F0.10200023651123
F7.28664126154342e+15
tp1024
(F0.104000091552734
F7.03184447419187e+15
tp1025
(F0.105999946594238
F6.77704768684032e+15
tp1026
(F0.107999801635742
F6.52225143635968e+15
tp1027
(F0.110000133514404
F6.26739398259507e+15
tp1028
(F0.111999988555908
F6.01259773211443e+15
tp1029
(F0.113999843597412
F5.75780094476288e+15
tp1030
(F0.116000175476074
F5.50294295412736e+15
tp1031
(F0.118000030517578
F5.26190187328307e+15
tp1032
(F0.119999885559082
F5.06208335167488e+15
tp1033
tp1034
a((F0.0
F1.16540168743158e+16
tp1035
(F0.00199985504150391
F1.46237086603674e+16
tp1036
(F0.00400018692016602
F2.03139733918843e+16
tp1037
(F0.00600004196166992
F2.75667858803917e+16
tp1038
(F0.00799989700317383
F3.55745011481969e+16
tp1039
(F0.0100002288818359
F4.38751310381056e+16
tp1040
(F0.0100002288818359
F4.38768876797297e+16
tp1041
(F0.0120000839233398
F5.1242412994986e+16
tp1042
(F0.0139999389648438
F5.95299518245765e+16
tp1043
(F0.0159997940063477
F6.6822131983319e+16
tp1044
(F0.0180001258850098
F7.26111551928402e+16
tp1045
(F0.0199999809265137
F7.77916330761257e+16
tp1046
(F0.0199999809265137
F7.77934627321938e+16
tp1047
(F0.0219998359680176
F8.54676759369482e+16
tp1048
(F0.0240001678466797
F9.21211042644623e+16
tp1049
(F0.0260000228881836
F1.16741969929044e+17
tp1050
(F0.0279998779296875
F1.25965437967008e+17
tp1051
(F0.0300002098083496
F1.31942529204486e+17
tp1052
(F0.0320000648498535
F1.26663627850646e+17
tp1053
(F0.0320000648498535
F1.26653208259985e+17
tp1054
(F0.0339999198913574
F1.1651636388692e+17
tp1055
(F0.0359997749328613
F1.05044454699696e+17
tp1056
(F0.0380001068115234
F9.40704181214249e+16
tp1057
(F0.0399999618530273
F8.37062497193165e+16
tp1058
(F0.0419998168945313
F7.35193088477102e+16
tp1059
(F0.0440001487731934
F6.60007108980244e+16
tp1060
(F0.0460000038146973
F5.99054049806909e+16
tp1061
(F0.0479998588562012
F5.48741428512031e+16
tp1062
(F0.0500001907348633
F5.04626788622664e+16
tp1063
(F0.0520000457763672
F4.60522628453499e+16
tp1064
(F0.0539999008178711
F4.1120596712489e+16
tp1065
(F0.0560002326965332
F3.72797878483026e+16
tp1066
(F0.0580000877380371
F3.46544031892767e+16
tp1067
(F0.059999942779541
F3.20290206777344e+16
tp1068
(F0.0619997978210449
F2.94036360187085e+16
tp1069
(F0.064000129699707
F2.67915872331366e+16
tp1070
(F0.0659999847412109
F2.47692589321421e+16
tp1071
(F0.0679998397827148
F2.31920567467377e+16
tp1072
(F0.070000171661377
F2.16137249849344e+16
tp1073
(F0.0720000267028809
F2.00357561478676e+16
tp1074
(F0.0739998817443848
F1.84577873108009e+16
tp1075
(F0.0760002136230469
F1.70669663049482e+16
tp1076
(F0.0780000686645508
F1.62109524793098e+16
tp1077
(F0.0799999237060547
F1.52614898289869e+16
tp1078
(F0.0819997787475586
F1.42882040688148e+16
tp1079
(F0.0840001106262207
F1.33146863804088e+16
tp1080
(F0.0859999656677246
F1.24328640962888e+16
tp1081
(F0.0879998207092285
F1.18557965853655e+16
tp1082
(F0.0900001525878906
F1.12785905617469e+16
tp1083
(F0.0920000076293945
F1.07015219770819e+16
tp1084
(F0.0939998626708984
F1.01244533924168e+16
tp1085
(F0.0960001945495605
F9.54724629505638e+15
tp1086
(F0.0980000495910645
F8.90962242961408e+15
tp1087
(F0.0999999046325684
F8.26017451920589e+15
tp1088
(F0.10200023651123
F7.66535537157734e+15
tp1089
(F0.104000091552734
F7.39731397882675e+15
tp1090
(F0.105999946594238
F7.1292741966889e+15
tp1091
(F0.107999801635742
F6.86123387768013e+15
tp1092
(F0.110000133514404
F6.59312859729101e+15
tp1093
(F0.111999988555908
F6.32508881515315e+15
tp1094
(F0.113999843597412
F6.05704795927347e+15
tp1095
(F0.116000175476074
F5.78894321575526e+15
tp1096
(F0.118000030517578
F5.53537317843763e+15
tp1097
(F0.119999885559082
F5.32516781529498e+15
tp1098
tp1099
aa.