(lp0
(lp1
((F0.0
F0.0
tp2
(F0.00199985504150391
F0.0
tp3
(F0.00400018692016602
F0.0
tp4
(F0.00600004196166992
F0.0
tp5
(F0.00799989700317383
F0.0
tp6
(F0.0100002288818359
F0.0
tp7
(F0.0120000839233398
F0.0
tp8
(F0.0139999389648438
F0.0
tp9
(F0.0159997940063477
F0.0
tp10
(F0.0180001258850098
F0.0
tp11
(F0.0199999809265137
F0.0
tp12
(F0.0219998359680176
F0.0
tp13
(F0.0240001678466797
F0.0
tp14
(F0.0260000228881836
F0.0
tp15
(F0.0279998779296875
F0.0
tp16
(F0.0300002098083496
F0.0
tp17
(F0.0320000648498535
F0.0
tp18
(F0.0339999198913574
F0.0
tp19
(F0.0359997749328613
F0.0
tp20
(F0.0380001068115234
F0.0
tp21
(F0.0399999618530273
F0.0
tp22
(F0.0419998168945313
F0.0
tp23
(F0.0440001487731934
F0.0
tp24
(F0.0460000038146973
F0.0
tp25
(F0.0479998588562012
F0.0
tp26
(F0.0500001907348633
F0.0
tp27
(F0.0520000457763672
F0.0
tp28
(F0.0539999008178711
F0.0
tp29
(F0.0560002326965332
F0.0
tp30
(F0.0580000877380371
F0.0
tp31
(F0.059999942779541
F0.0
tp32
(F0.0619997978210449
F0.0
tp33
(F0.064000129699707
F0.0
tp34
(F0.0659999847412109
F0.0
tp35
(F0.0679998397827148
F0.0
tp36
(F0.070000171661377
F0.0
tp37
(F0.0720000267028809
F0.0
tp38
(F0.0739998817443848
F0.0
tp39
(F0.0760002136230469
F0.0
tp40
(F0.0780000686645508
F0.0
tp41
(F0.0799999237060547
F0.0
tp42
(F0.0819997787475586
F0.0
tp43
(F0.0840001106262207
F0.0
tp44
(F0.0859999656677246
F0.0
tp45
(F0.0879998207092285
F0.0
tp46
(F0.0900001525878906
F0.0
tp47
(F0.0920000076293945
F0.0
tp48
(F0.0939998626708984
F0.0
tp49
(F0.0960001945495605
F0.0
tp50
(F0.0980000495910645
F0.0
tp51
(F0.0999999046325684
F0.0
tp52
(F0.10200023651123
F0.0
tp53
(F0.104000091552734
F0.0
tp54
(F0.105999946594238
F0.0
tp55
(F0.107999801635742
F0.0
tp56
(F0.110000133514404
F0.0
tp57
(F0.111999988555908
F0.0
tp58
(F0.113999843597412
F0.0
tp59
(F0.116000175476074
F0.0
tp60
(F0.118000030517578
F0.0
tp61
(F0.119999885559082
F0.0
tp62
tp63
a((F0.0
F1.6975647515607e+15
tp64
(F0.00199985504150391
F1.75330993740186e+15
tp65
(F0.00400018692016602
F1.85697044948582e+15
tp66
(F0.00600004196166992
F1.96804756478362e+15
tp67
(F0.00799989700317383
F2.10757078535373e+15
tp68
(F0.0100002288818359
F2.35794563543859e+15
tp69
(F0.0120000839233398
F2.70094413961626e+15
tp70
(F0.0139999389648438
F3.21704110011187e+15
tp71
(F0.0159997940063477
F3.73105312242074e+15
tp72
(F0.0180001258850098
F4.1063956831273e+15
tp73
(F0.0199999809265137
F4.24474006939238e+15
tp74
(F0.0219998359680176
F4.26631771665203e+15
tp75
(F0.0240001678466797
F4.62329607094272e+15
tp76
(F0.0260000228881836
F8.33494023615283e+15
tp77
(F0.0279998779296875
F8.53803420719514e+15
tp78
(F0.0300002098083496
F8.34339648988774e+15
tp79
(F0.0320000648498535
F7.34722070151168e+15
tp80
(F0.0320000648498535
F7.3452530696192e+15
tp81
(F0.0339999198913574
F6.63998239552307e+15
tp82
(F0.0359997749328613
F5.91556744157594e+15
tp83
(F0.0380001068115234
F5.27675279645082e+15
tp84
(F0.0399999618530273
F4.69263026487296e+15
tp85
(F0.0419998168945313
F4.13325184519373e+15
tp86
(F0.0440001487731934
F3.71225834553344e+15
tp87
(F0.0460000038146973
F3.37279969971405e+15
tp88
(F0.0479998588562012
F3.09397954966323e+15
tp89
(F0.0500001907348633
F2.8468763909161e+15
tp90
(F0.0520000457763672
F2.59983201953382e+15
tp91
(F0.0539999008178711
F2.325926117376e+15
tp92
(F0.0560002326965332
F2.11171945532621e+15
tp93
(F0.0580000877380371
F1.96380829784474e+15
tp94
(F0.059999942779541
F1.81589700614554e+15
tp95
(F0.0619997978210449
F1.66798584866406e+15
tp96
(F0.064000129699707
F1.52088737952563e+15
tp97
(F0.0659999847412109
F1.40714657919795e+15
tp98
(F0.0679998397827148
F1.31794507451597e+15
tp99
(F0.070000171661377
F1.22863592721613e+15
tp100
(F0.0720000267028809
F1.1393465099223e+15
tp101
(F0.0739998817443848
F1.05005709262848e+15
tp102
(F0.0760002136230469
F971313497767936.0
tp103
(F0.0780000686645508
F922706480463872.0
tp104
(F0.0799999237060547
F868880876568576.0
tp105
(F0.0819997787475586
F813724772335616.0
tp106
(F0.0840001106262207
F758555447656448.0
tp107
(F0.0859999656677246
F708551223803904.0
tp108
(F0.0879998207092285
F675712709165056.0
tp109
(F0.0900001525878906
F642866342789120.0
tp110
(F0.0920000076293945
F610027761041408.0
tp111
(F0.0939998626708984
F577189179293696.0
tp112
(F0.0960001945495605
F544342812917760.0
tp113
(F0.0980000495910645
F508081343561728.0
tp114
(F0.0999999046325684
F471151537029120.0
tp115
(F0.10200023651123
F437322831101952.0
tp116
(F0.104000091552734
F422043820490752.0
tp117
(F0.105999946594238
F406764809879552.0
tp118
(F0.107999801635742
F391485799268352.0
tp119
(F0.110000133514404
F376203164778496.0
tp120
(F0.111999988555908
F360924154167296.0
tp121
(F0.113999843597412
F345645143556096.0
tp122
(F0.116000175476074
F330362509066240.0
tp123
(F0.118000030517578
F315908299948032.0
tp124
(F0.119999885559082
F303925978726400.0
tp125
tp126
a((F0.0
F3.29389443960013e+15
tp127
(F0.00199985504150391
F3.40603308290867e+15
tp128
(F0.00400018692016602
F3.6204963692544e+15
tp129
(F0.00600004196166992
F3.87070237343744e+15
tp130
(F0.00799989700317383
F4.19313415828275e+15
tp131
(F0.0100002288818359
F4.72703080543027e+15
tp132
(F0.0100002288818359
F4.72719884602573e+15
tp133
(F0.0120000839233398
F5.43170394220134e+15
tp134
(F0.0139999389648438
F6.41808452078797e+15
tp135
(F0.0159997940063477
F7.3390119452672e+15
tp136
(F0.0180001258850098
F7.95601620959232e+15
tp137
(F0.0199999809265137
F8.13881055458099e+15
tp138
(F0.0219998359680176
F8.45543178554573e+15
tp139
(F0.0240001678466797
F9.35669040729293e+15
tp140
(F0.0260000228881836
F1.57108529298145e+16
tp141
(F0.0279998779296875
F1.62779636328038e+16
tp142
(F0.0300002098083496
F1.60881303732879e+16
tp143
(F0.0320000648498535
F1.42628949002813e+16
tp144
(F0.0320000648498535
F1.42592892752364e+16
tp145
(F0.0339999198913574
F1.28837690903757e+16
tp146
(F0.0359997749328613
F1.14711296506593e+16
tp147
(F0.0380001068115234
F1.02233160233779e+16
tp148
(F0.0399999618530273
F9.08619444073267e+15
tp149
(F0.0419998168945313
F7.99472406547661e+15
tp150
(F0.0440001487731934
F7.17832057572557e+15
tp151
(F0.0460000038146973
F6.51954882818867e+15
tp152
(F0.0479998588562012
F5.97814672569139e+15
tp153
(F0.0500001907348633
F5.49972011804262e+15
tp154
(F0.0520000457763672
F5.0214073270272e+15
tp155
(F0.0539999008178711
F4.49021436179251e+15
tp156
(F0.0560002326965332
F4.07522871607296e+15
tp157
(F0.0580000877380371
F3.78936991993037e+15
tp158
(F0.059999942779541
F3.50351058691686e+15
tp159
(F0.0619997978210449
F3.21765152233882e+15
tp160
(F0.064000129699707
F2.93333703537459e+15
tp161
(F0.0659999847412109
F2.7134529634304e+15
tp162
(F0.0679998397827148
F2.5412424916009e+15
tp163
(F0.070000171661377
F2.36884438338765e+15
tp164
(F0.0720000267028809
F2.19648466144461e+15
tp165
(F0.0739998817443848
F2.02412493950157e+15
tp166
(F0.0760002136230469
F1.87214443472486e+15
tp167
(F0.0780000686645508
F1.77840153899827e+15
tp168
(F0.0799999237060547
F1.67455580644966e+15
tp169
(F0.0819997787475586
F1.56813443570074e+15
tp170
(F0.0840001106262207
F1.46168783201894e+15
tp171
(F0.0859999656677246
F1.36522179280896e+15
tp172
(F0.0879998207092285
F1.30192618867917e+15
tp173
(F0.0900001525878906
F1.23861541794611e+15
tp174
(F0.0920000076293945
F1.17531981381632e+15
tp175
(F0.0939998626708984
F1.11202414257766e+15
tp176
(F0.0960001945495605
F1.04871337184461e+15
tp177
(F0.0980000495910645
F978810296074240.0
tp178
(F0.0999999046325684
F907617186611200.0
tp179
(F0.10200023651123
F842404617781248.0
tp180
(F0.104000091552734
F812966844825600.0
tp181
(F0.105999946594238
F783529206087680.0
tp182
(F0.107999801635742
F754091433132032.0
tp183
(F0.110000133514404
F724646747963392.0
tp184
(F0.111999988555908
F695208975007744.0
tp185
(F0.113999843597412
F665771269160960.0
tp186
(F0.116000175476074
F636326516883456.0
tp187
(F0.118000030517578
F608478016045056.0
tp188
(F0.119999885559082
F585392231284736.0
tp189
tp190
a((F0.0
F4.68938004837171e+15
tp191
(F0.00199985504150391
F4.86031974675251e+15
tp192
(F0.00400018692016602
F5.19746447894118e+15
tp193
(F0.00600004196166992
F5.62261953347584e+15
tp194
(F0.00799989700317383
F6.17907925444198e+15
tp195
(F0.0100002288818359
F7.03117231181005e+15
tp196
(F0.0100002288818359
F7.03142893610598e+15
tp197
(F0.0120000839233398
F8.1068672721879e+15
tp198
(F0.0139999389648438
F9.52255882303898e+15
tp199
(F0.0159997940063477
F1.07910344642396e+16
tp200
(F0.0180001258850098
F1.16200877064192e+16
tp201
(F0.0199999809265137
F1.19118620147057e+16
tp202
(F0.0219998359680176
F1.26640804394435e+16
tp203
(F0.0240001678466797
F1.40754432001311e+16
tp204
(F0.0260000228881836
F2.2409601752236e+16
tp205
(F0.0279998779296875
F2.34034163823411e+16
tp206
(F0.0300002098083496
F2.33303912008909e+16
tp207
(F0.0320000648498535
F2.08300373348188e+16
tp208
(F0.0320000648498535
F2.08250981224284e+16
tp209
(F0.0339999198913574
F1.88167714148188e+16
tp210
(F0.0359997749328613
F1.67503917817528e+16
tp211
(F0.0380001068115234
F1.49197908208517e+16
tp212
(F0.0399999618530273
F1.32549605651907e+16
tp213
(F0.0419998168945313
F1.16537366276997e+16
tp214
(F0.0440001487731934
F1.04616824133386e+16
tp215
(F0.0460000038146973
F9.49919742217421e+15
tp216
(F0.0479998588562012
F8.70779976889139e+15
tp217
(F0.0500001907348633
F8.00994435583181e+15
tp218
(F0.0520000457763672
F7.31225590962586e+15
tp219
(F0.0539999008178711
F6.5364301971456e+15
tp220
(F0.0560002326965332
F5.93078826880205e+15
tp221
(F0.0580000877380371
F5.51434018671821e+15
tp222
(F0.059999942779541
F5.09789264150528e+15
tp223
(F0.0619997978210449
F4.68144455942144e+15
tp224
(F0.064000129699707
F4.26721831760691e+15
tp225
(F0.0659999847412109
F3.94680704643891e+15
tp226
(F0.0679998397827148
F3.69611383190323e+15
tp227
(F0.070000171661377
F3.44516989865165e+15
tp228
(F0.0720000267028809
F3.19428153153946e+15
tp229
(F0.0739998817443848
F2.94339370129818e+15
tp230
(F0.0760002136230469
F2.7221929534423e+15
tp231
(F0.0780000686645508
F2.58582801022976e+15
tp232
(F0.0799999237060547
F2.43472676578918e+15
tp233
(F0.0819997787475586
F2.27986849870643e+15
tp234
(F0.0840001106262207
F2.12497345596621e+15
tp235
(F0.0859999656677246
F1.98461728017613e+15
tp236
(F0.0879998207092285
F1.89258082864333e+15
tp237
(F0.0900001525878906
F1.80052249962086e+15
tp238
(F0.0920000076293945
F1.70848591387034e+15
tp239
(F0.0939998626708984
F1.61644959655526e+15
tp240
(F0.0960001945495605
F1.52439113331507e+15
tp241
(F0.0980000495910645
F1.42273663939379e+15
tp242
(F0.0999999046325684
F1.31920403680461e+15
tp243
(F0.10200023651123
F1.22437142734438e+15
tp244
(F0.104000091552734
F1.18157959443251e+15
tp245
(F0.105999946594238
F1.13878776152064e+15
tp246
(F0.107999801635742
F1.09599592860877e+15
tp247
(F0.110000133514404
F1.05319389514957e+15
tp248
(F0.111999988555908
F1.0104020622377e+15
tp249
(F0.113999843597412
F967610229325824.0
tp250
(F0.116000175476074
F924808128757760.0
tp251
(F0.118000030517578
F884326518489088.0
tp252
(F0.119999885559082
F850768328392704.0
tp253
tp254
a((F0.0
F5.84045920098714e+15
tp255
(F0.00199985504150391
F6.07613264645325e+15
tp256
(F0.00400018692016602
F6.55478366614323e+15
tp257
(F0.00600004196166992
F7.19517778549146e+15
tp258
(F0.00799989700317383
F8.0366445568983e+15
tp259
(F0.0100002288818359
F9.23846928498688e+15
tp260
(F0.0100002288818359
F9.23881502985421e+15
tp261
(F0.0120000839233398
F1.0686879359828e+16
tp262
(F0.0139999389648438
F1.25037536052511e+16
tp263
(F0.0159997940063477
F1.40946116391731e+16
tp264
(F0.0180001258850098
F1.51453775356232e+16
tp265
(F0.0199999809265137
F1.56215476748288e+16
tp266
(F0.0199999809265137
F1.56218397326049e+16
tp267
(F0.0219998359680176
F1.68489720186143e+16
tp268
(F0.0240001678466797
F1.87019970037678e+16
tp269
(F0.0260000228881836
F2.85722527567708e+16
tp270
(F0.0279998779296875
F3.00147776526746e+16
tp271
(F0.0300002098083496
F3.0129622930686e+16
tp272
(F0.0320000648498535
F2.70911203998433e+16
tp273
(F0.0320000648498535
F2.70851203305308e+16
tp274
(F0.0339999198913574
F2.44834589233644e+16
tp275
(F0.0359997749328613
F2.17974701283082e+16
tp276
(F0.0380001068115234
F1.94087510521938e+16
tp277
(F0.0399999618530273
F1.72383720072806e+16
tp278
(F0.0419998168945313
F1.51471008912507e+16
tp279
(F0.0440001487731934
F1.35959401663037e+16
tp280
(F0.0460000038146973
F1.23428533929247e+16
tp281
(F0.0479998588562012
F1.13120623156265e+16
tp282
(F0.0500001907348633
F1.04045851181056e+16
tp283
(F0.0520000457763672
F9.49732374269133e+15
tp284
(F0.0539999008178711
F8.48739976400077e+15
tp285
(F0.0560002326965332
F7.69946385435853e+15
tp286
(F0.0580000877380371
F7.15840964421222e+15
tp287
(F0.059999942779541
F6.61735597093683e+15
tp288
(F0.0619997978210449
F6.07630176079053e+15
tp289
(F0.064000129699707
F5.53810477763789e+15
tp290
(F0.0659999847412109
F5.12173829993267e+15
tp291
(F0.0679998397827148
F4.79621467550515e+15
tp292
(F0.070000171661377
F4.47038771901235e+15
tp293
(F0.0720000267028809
F4.14463377696358e+15
tp294
(F0.0739998817443848
F3.81888037178573e+15
tp295
(F0.0760002136230469
F3.53169389387776e+15
tp296
(F0.0780000686645508
F3.3547227192361e+15
tp297
(F0.0799999237060547
F3.1585860583424e+15
tp298
(F0.0819997787475586
F2.9575638721495e+15
tp299
(F0.0840001106262207
F2.75649336757453e+15
tp300
(F0.0859999656677246
F2.57431159229645e+15
tp301
(F0.0879998207092285
F2.4549050590167e+15
tp302
(F0.0900001525878906
F2.33547007157862e+15
tp303
(F0.0920000076293945
F2.21606326986342e+15
tp304
(F0.0939998626708984
F2.09665673658368e+15
tp305
(F0.0960001945495605
F1.97722148071014e+15
tp306
(F0.0980000495910645
F1.84532598784e+15
tp307
(F0.0999999046325684
F1.71099189306982e+15
tp308
(F0.10200023651123
F1.58794859623219e+15
tp309
(F0.104000091552734
F1.53244352590643e+15
tp310
(F0.105999946594238
F1.4769385897984e+15
tp311
(F0.107999801635742
F1.42143338525491e+15
tp312
(F0.110000133514404
F1.36591529580954e+15
tp313
(F0.111999988555908
F1.31041009126605e+15
tp314
(F0.113999843597412
F1.25490502094029e+15
tp315
(F0.116000175476074
F1.19938679727718e+15
tp316
(F0.118000030517578
F1.14687840616448e+15
tp317
(F0.119999885559082
F1.10335038901453e+15
tp318
tp319
a((F0.0
F6.7425574888407e+15
tp320
(F0.00199985504150391
F7.05251615178752e+15
tp321
(F0.00400018692016602
F7.69734536173978e+15
tp322
(F0.00600004196166992
F8.59379147263181e+15
tp323
(F0.00799989700317383
F9.76543385491866e+15
tp324
(F0.0100002288818359
F1.13419220020101e+16
tp325
(F0.0100002288818359
F1.13423547199652e+16
tp326
(F0.0120000839233398
F1.31585331806863e+16
tp327
(F0.0139999389648438
F1.53578688951091e+16
tp328
(F0.0159997940063477
F1.72620641206272e+16
tp329
(F0.0180001258850098
F1.85516602635059e+16
tp330
(F0.0199999809265137
F1.92645775900017e+16
tp331
(F0.0199999809265137
F1.92649813169275e+16
tp332
(F0.0219998359680176
F2.09603058403901e+16
tp333
(F0.0240001678466797
F2.31923488045138e+16
tp334
(F0.0260000228881836
F3.42840674866954e+16
tp335
(F0.0279998779296875
F3.61786613128233e+16
tp336
(F0.0300002098083496
F3.65296632201216e+16
tp337
(F0.0320000648498535
F3.30729103315436e+16
tp338
(F0.0320000648498535
F3.30660834810266e+16
tp339
(F0.0339999198913574
F2.99117285023416e+16
tp340
(F0.0359997749328613
F2.66401187689923e+16
tp341
(F0.0380001068115234
F2.37171830706668e+16
tp342
(F0.0399999618530273
F2.10614501727273e+16
tp343
(F0.0419998168945313
F1.84981514134487e+16
tp344
(F0.0440001487731934
F1.66023378166088e+16
tp345
(F0.0460000038146973
F1.50701382985318e+16
tp346
(F0.0479998588562012
F1.38092647494451e+16
tp347
(F0.0500001907348633
F1.27006327586161e+16
tp348
(F0.0520000457763672
F1.15922649082757e+16
tp349
(F0.0539999008178711
F1.03574199347446e+16
tp350
(F0.0560002326965332
F9.39443028492288e+15
tp351
(F0.0580000877380371
F8.73388417902182e+15
tp352
(F0.059999942779541
F8.07333807312077e+15
tp353
(F0.0619997978210449
F7.41279196721971e+15
tp354
(F0.064000129699707
F6.75570545747558e+15
tp355
(F0.0659999847412109
F6.24729729374618e+15
tp356
(F0.0679998397827148
F5.85004878921728e+15
tp357
(F0.070000171661377
F5.45244970798285e+15
tp358
(F0.0720000267028809
F5.05494135793254e+15
tp359
(F0.0739998817443848
F4.65743300788224e+15
tp360
(F0.0760002136230469
F4.30700796837888e+15
tp361
(F0.0780000686645508
F4.09113405371187e+15
tp362
(F0.0799999237060547
F3.85184370891162e+15
tp363
(F0.0819997787475586
F3.60658282269901e+15
tp364
(F0.0840001106262207
F3.36126341755699e+15
tp365
(F0.0859999656677246
F3.1390036918272e+15
tp366
(F0.0879998207092285
F2.99338309409178e+15
tp367
(F0.0900001525878906
F2.84772706287616e+15
tp368
(F0.0920000076293945
F2.70210592826982e+15
tp369
(F0.0939998626708984
F2.55648479366349e+15
tp370
(F0.0960001945495605
F2.41082903088333e+15
tp371
(F0.0980000495910645
F2.24996680217395e+15
tp372
(F0.0999999046325684
F2.08612883221709e+15
tp373
(F0.10200023651123
F1.93606374863667e+15
tp374
(F0.104000091552734
F1.86838486194586e+15
tp375
(F0.105999946594238
F1.80070610947277e+15
tp376
(F0.107999801635742
F1.73302708856422e+15
tp377
(F0.110000133514404
F1.66533222996378e+15
tp378
(F0.111999988555908
F1.59765320905523e+15
tp379
(F0.113999843597412
F1.52997445658214e+15
tp380
(F0.116000175476074
F1.46227932954624e+15
tp381
(F0.118000030517578
F1.39825425206477e+15
tp382
(F0.119999885559082
F1.3451794621399e+15
tp383
tp384
a((F0.0
F7.41398489438618e+15
tp385
(F0.00199985504150391
F7.81069276990669e+15
tp386
(F0.00400018692016602
F8.64979891991347e+15
tp387
(F0.00600004196166992
F9.84025540644045e+15
tp388
(F0.00799989700317383
F1.13782123281777e+16
tp389
(F0.0100002288818359
F1.33460858125681e+16
tp390
(F0.0100002288818359
F1.33466044298691e+16
tp391
(F0.0120000839233398
F1.55215651311452e+16
tp392
(F0.0139999389648438
F1.80893456887972e+16
tp393
(F0.0159997940063477
F2.03029546532864e+16
tp394
(F0.0180001258850098
F2.1844508610134e+16
tp395
(F0.0199999809265137
F2.28234519159767e+16
tp396
(F0.0199999809265137
F2.28239630170849e+16
tp397
(F0.0219998359680176
F2.49623220070646e+16
tp398
(F0.0240001678466797
F2.75222363321139e+16
tp399
(F0.0260000228881836
F3.96034553497518e+16
tp400
(F0.0279998779296875
F4.19444874039788e+16
tp401
(F0.0300002098083496
F4.25658059629527e+16
tp402
(F0.0320000648498535
F3.87949277562798e+16
tp403
(F0.0320000648498535
F3.87874802829885e+16
tp404
(F0.0339999198913574
F3.5121442228011e+16
tp405
(F0.0359997749328613
F3.12979420820275e+16
tp406
(F0.0380001068115234
F2.78642746426655e+16
tp407
(F0.0399999618530273
F2.47419966272307e+16
tp408
(F0.0419998168945313
F2.17234850216673e+16
tp409
(F0.0440001487731934
F1.94959517732045e+16
tp410
(F0.0460000038146973
F1.76949517269074e+16
tp411
(F0.0479998588562012
F1.62123698185175e+16
tp412
(F0.0500001907348633
F1.49100917109555e+16
tp413
(F0.0520000457763672
F1.36081249885225e+16
tp414
(F0.0539999008178711
F1.21565538177516e+16
tp415
(F0.0560002326965332
F1.10249480468562e+16
tp416
(F0.0580000877380371
F1.02494090234429e+16
tp417
(F0.059999942779541
F9.4738700000297e+15
tp418
(F0.0619997978210449
F8.69832990287462e+15
tp419
(F0.064000129699707
F7.92682546436506e+15
tp420
(F0.0659999847412109
F7.32982178899558e+15
tp421
(F0.0679998397827148
F6.86356604492186e+15
tp422
(F0.070000171661377
F6.3969199956951e+15
tp423
(F0.0720000267028809
F5.9303791731671e+15
tp424
(F0.0739998817443848
F5.46383888751002e+15
tp425
(F0.0760002136230469
F5.05257858904883e+15
tp426
(F0.0780000686645508
F4.79928826147635e+15
tp427
(F0.0799999237060547
F4.51848544714752e+15
tp428
(F0.0819997787475586
F4.23066895122432e+15
tp429
(F0.0840001106262207
F3.94278373582438e+15
tp430
(F0.0859999656677246
F3.68197292051661e+15
tp431
(F0.0879998207092285
F3.51114274380186e+15
tp432
(F0.0900001525878906
F3.34027176489779e+15
tp433
(F0.0920000076293945
F3.1694418566185e+15
tp434
(F0.0939998626708984
F2.9986119483392e+15
tp435
(F0.0960001945495605
F2.82774096943514e+15
tp436
(F0.0980000495910645
F2.63902144862618e+15
tp437
(F0.0999999046325684
F2.44680904566374e+15
tp438
(F0.10200023651123
F2.27075753089434e+15
tp439
(F0.104000091552734
F2.19137311349146e+15
tp440
(F0.105999946594238
F2.11198896452403e+15
tp441
(F0.107999801635742
F2.03260468133888e+15
tp442
(F0.110000133514404
F1.95320147345408e+15
tp443
(F0.111999988555908
F1.87381732448666e+15
tp444
(F0.113999843597412
F1.7944330413015e+15
tp445
(F0.116000175476074
F1.71502996763443e+15
tp446
(F0.118000030517578
F1.6399316591575e+15
tp447
(F0.119999885559082
F1.57767731616154e+15
tp448
tp449
a((F0.0
F7.88417804972851e+15
tp450
(F0.00199985504150391
F8.38205173242266e+15
tp451
(F0.00400018692016602
F9.44435605851341e+15
tp452
(F0.00600004196166992
F1.09615017162179e+16
tp453
(F0.00799989700317383
F1.28915805621453e+16
tp454
(F0.0100002288818359
F1.52592553722511e+16
tp455
(F0.0100002288818359
F1.52598555939308e+16
tp456
(F0.0120000839233398
F1.77807630259978e+16
tp457
(F0.0139999389648438
F2.07045040306913e+16
tp458
(F0.0159997940063477
F2.32236354937815e+16
tp459
(F0.0180001258850098
F2.5023748629332e+16
tp460
(F0.0199999809265137
F2.62813644457247e+16
tp461
(F0.0199999809265137
F2.62819721835971e+16
tp462
(F0.0219998359680176
F2.88324654978826e+16
tp463
(F0.0240001678466797
F3.1679214918828e+16
tp464
(F0.0260000228881836
F4.45739436920013e+16
tp465
(F0.0279998779296875
F4.7351404553044e+16
tp466
(F0.0300002098083496
F4.82677830702858e+16
tp467
(F0.0320000648498535
F4.42728836644209e+16
tp468
(F0.0320000648498535
F4.42649895145308e+16
tp469
(F0.0339999198913574
F4.01279696408412e+16
tp470
(F0.0359997749328613
F3.5785892996055e+16
tp471
(F0.0380001068115234
F3.18646887865385e+16
tp472
(F0.0399999618530273
F2.82936468182139e+16
tp473
(F0.0419998168945313
F2.48357944180081e+16
tp474
(F0.0440001487731934
F2.22883032858624e+16
tp475
(F0.0460000038146973
F2.02279000997888e+16
tp476
(F0.0479998588562012
F1.85312548738826e+16
tp477
(F0.0500001907348633
F1.70420995180462e+16
tp478
(F0.0520000457763672
F1.55532963495281e+16
tp479
(F0.0539999008178711
F1.38924357173903e+16
tp480
(F0.0560002326965332
F1.25980335061074e+16
tp481
(F0.0580000877380371
F1.17115297076347e+16
tp482
(F0.059999942779541
F1.0825025909162e+16
tp483
(F0.0619997978210449
F9.93852211068928e+15
tp484
(F0.064000129699707
F9.05660426354688e+15
tp485
(F0.0659999847412109
F8.37409691611955e+15
tp486
(F0.0679998397827148
F7.84126005215232e+15
tp487
(F0.070000171661377
F7.30799530206822e+15
tp488
(F0.0720000267028809
F6.77485188481024e+15
tp489
(F0.0739998817443848
F6.24170900442317e+15
tp490
(F0.0760002136230469
F5.77175368289485e+15
tp491
(F0.0780000686645508
F5.48236791329587e+15
tp492
(F0.0799999237060547
F5.16151560267366e+15
tp493
(F0.0819997787475586
F4.83264136688435e+15
tp494
(F0.0840001106262207
F4.50368821107098e+15
tp495
(F0.0859999656677246
F4.20568351585075e+15
tp496
(F0.0879998207092285
F4.01053684491878e+15
tp497
(F0.0900001525878906
F3.81534346621747e+15
tp498
(F0.0920000076293945
F3.6201967952855e+15
tp499
(F0.0939998626708984
F3.42505012435354e+15
tp500
(F0.0960001945495605
F3.22985674565222e+15
tp501
(F0.0980000495910645
F3.01426495664947e+15
tp502
(F0.0999999046325684
F2.794681532416e+15
tp503
(F0.10200023651123
F2.59356163571712e+15
tp504
(F0.104000091552734
F2.50288735990579e+15
tp505
(F0.105999946594238
F2.41221335252992e+15
tp506
(F0.107999801635742
F2.32153907671859e+15
tp507
(F0.110000133514404
F2.23084319185306e+15
tp508
(F0.111999988555908
F2.14016891604173e+15
tp509
(F0.113999843597412
F2.04949477444813e+15
tp510
(F0.116000175476074
F1.95879888958259e+15
tp511
(F0.118000030517578
F1.87302007118234e+15
tp512
(F0.119999885559082
F1.80191205575885e+15
tp513
tp514
a((F0.0
F8.18627155381453e+15
tp515
(F0.00199985504150391
F8.8007009852457e+15
tp516
(F0.00400018692016602
F1.01136923518566e+16
tp517
(F0.00600004196166992
F1.19834720044319e+16
tp518
(F0.00799989700317383
F1.43211883439063e+16
tp519
(F0.0100002288818359
F1.7089620109951e+16
tp520
(F0.0100002288818359
F1.70902997885256e+16
tp521
(F0.0120000839233398
F1.99419948643123e+16
tp522
(F0.0139999389648438
F2.32091807813468e+16
tp523
(F0.0159997940063477
F2.60281804185928e+16
tp524
(F0.0180001258850098
F2.80875678449009e+16
tp525
(F0.0199999809265137
F2.96257481049375e+16
tp526
(F0.0199999809265137
F2.96264481846067e+16
tp527
(F0.0219998359680176
F3.25577268569047e+16
tp528
(F0.0240001678466797
F3.56581155715154e+16
tp529
(F0.0260000228881836
F4.92298514496225e+16
tp530
(F0.0279998779296875
F5.2431698029183e+16
tp531
(F0.0300002098083496
F5.36612569717146e+16
tp532
(F0.0320000648498535
F4.95201998287667e+16
tp533
(F0.0320000648498535
F4.95120222110351e+16
tp534
(F0.0339999198913574
F4.49439293547479e+16
tp535
(F0.0359997749328613
F4.01159737971835e+16
tp536
(F0.0380001068115234
F3.5730174385324e+16
tp537
(F0.0399999618530273
F3.17273421748634e+16
tp538
(F0.0419998168945313
F2.7845267264897e+16
tp539
(F0.0440001487731934
F2.49886437141381e+16
tp540
(F0.0460000038146973
F2.26774917473894e+16
tp541
(F0.0479998588562012
F2.07738248028488e+16
tp542
(F0.0500001907348633
F1.91039565505495e+16
tp543
(F0.0520000457763672
F1.74344855827251e+16
tp544
(F0.0539999008178711
F1.55711526760612e+16
tp545
(F0.0560002326965332
F1.41192701201613e+16
tp546
(F0.0580000877380371
F1.31254544163144e+16
tp547
(F0.059999942779541
F1.21316376387256e+16
tp548
(F0.0619997978210449
F1.11378208611369e+16
tp549
(F0.064000129699707
F1.0149123684565e+16
tp550
(F0.0659999847412109
F9.3839172787241e+15
tp551
(F0.0679998397827148
F8.78669241253888e+15
tp552
(F0.070000171661377
F8.1890036898857e+15
tp553
(F0.0720000267028809
F7.59145025870234e+15
tp554
(F0.0739998817443848
F6.99389897500262e+15
tp555
(F0.0760002136230469
F6.46718243943219e+15
tp556
(F0.0780000686645508
F6.14289308123136e+15
tp557
(F0.0799999237060547
F5.78330982927565e+15
tp558
(F0.0819997787475586
F5.41472862083482e+15
tp559
(F0.0840001106262207
F5.04605936556442e+15
tp560
(F0.0859999656677246
F4.71208646672384e+15
tp561
(F0.0879998207092285
F4.4934259235881e+15
tp562
(F0.0900001525878906
F4.27471276710298e+15
tp563
(F0.0920000076293945
F4.05605222396723e+15
tp564
(F0.0939998626708984
F3.83739141239603e+15
tp565
(F0.0960001945495605
F3.61867852434637e+15
tp566
(F0.0980000495910645
F3.37710084102554e+15
tp567
(F0.0999999046325684
F3.1310488755241e+15
tp568
(F0.10200023651123
F2.90568818340659e+15
tp569
(F0.104000091552734
F2.8040969060352e+15
tp570
(F0.105999946594238
F2.70250589709926e+15
tp571
(F0.107999801635742
F2.60091488816333e+15
tp572
(F0.110000133514404
F2.4992994516009e+15
tp573
(F0.111999988555908
F2.39770844266496e+15
tp574
(F0.113999843597412
F2.29611743372902e+15
tp575
(F0.116000175476074
F2.19450213138432e+15
tp576
(F0.118000030517578
F2.0983959299031e+15
tp577
(F0.119999885559082
F2.01872670248141e+15
tp578
tp579
a((F0.0
F8.35284756542259e+15
tp580
(F0.00199985504150391
F9.09930268092006e+15
tp581
(F0.00400018692016602
F1.06873099302994e+16
tp582
(F0.00600004196166992
F1.2928315417428e+16
tp583
(F0.00799989700317383
F1.56798024637481e+16
tp584
(F0.0100002288818359
F1.88437889065943e+16
tp585
(F0.0100002288818359
F1.88445426733548e+16
tp586
(F0.0120000839233398
F2.20105413083791e+16
tp587
(F0.0139999389648438
F2.56081004047892e+16
tp588
(F0.0159997940063477
F2.87193145844695e+16
tp589
(F0.0180001258850098
F3.10342847771443e+16
tp590
(F0.0199999809265137
F3.28483608513741e+16
tp591
(F0.0199999809265137
F3.2849142535422e+16
tp592
(F0.0219998359680176
F3.61315584064881e+16
tp593
(F0.0240001678466797
F3.94583498796564e+16
tp594
(F0.0260000228881836
F5.3599392262783e+16
tp595
(F0.0279998779296875
F5.72127869036134e+16
tp596
(F0.0300002098083496
F5.87687891304448e+16
tp597
(F0.0320000648498535
F5.45488377332367e+16
tp598
(F0.0320000648498535
F5.45405054966825e+16
tp599
(F0.0339999198913574
F4.95800802628076e+16
tp600
(F0.0359997749328613
F4.42981724318597e+16
tp601
(F0.0380001068115234
F3.94704659823985e+16
tp602
(F0.0399999618530273
F3.50521536681083e+16
tp603
(F0.0419998168945313
F3.07603410255872e+16
tp604
(F0.0440001487731934
F2.76046223947858e+16
tp605
(F0.0460000038146973
F2.50507639736238e+16
tp606
(F0.0479998588562012
F2.29466122506732e+16
tp607
(F0.0500001907348633
F2.11017026062254e+16
tp608
(F0.0520000457763672
F1.92572289009582e+16
tp609
(F0.0539999008178711
F1.71977212155658e+16
tp610
(F0.0560002326965332
F1.55932545777664e+16
tp611
(F0.0580000877380371
F1.44954652318761e+16
tp612
(F0.059999942779541
F1.33976769597276e+16
tp613
(F0.0619997978210449
F1.22998886875791e+16
tp614
(F0.064000129699707
F1.12077343387812e+16
tp615
(F0.0659999847412109
F1.03623988755825e+16
tp616
(F0.0679998397827148
F9.70278531445555e+15
tp617
(F0.070000171661377
F9.04267246338048e+15
tp618
(F0.0720000267028809
F8.3827115467735e+15
tp619
(F0.0739998817443848
F7.72275063016653e+15
tp620
(F0.0760002136230469
F7.1410365014999e+15
tp621
(F0.0780000686645508
F6.78292696019763e+15
tp622
(F0.0799999237060547
F6.38581374713856e+15
tp623
(F0.0819997787475586
F5.97875661104742e+15
tp624
(F0.0840001106262207
F5.57160283819213e+15
tp625
(F0.0859999656677246
F5.20277627974451e+15
tp626
(F0.0879998207092285
F4.9613314719744e+15
tp627
(F0.0900001525878906
F4.71982814527488e+15
tp628
(F0.0920000076293945
F4.47838280063386e+15
tp629
(F0.0939998626708984
F4.23693718755738e+15
tp630
(F0.0960001945495605
F3.99543412929331e+15
tp631
(F0.0980000495910645
F3.72867639489331e+15
tp632
(F0.0999999046325684
F3.45697622687744e+15
tp633
(F0.10200023651123
F3.2081258217472e+15
tp634
(F0.104000091552734
F3.09595657679667e+15
tp635
(F0.105999946594238
F2.9837876002816e+15
tp636
(F0.107999801635742
F2.87161835533107e+15
tp637
(F0.110000133514404
F2.75942226683494e+15
tp638
(F0.111999988555908
F2.64725329031987e+15
tp639
(F0.113999843597412
F2.53508404536934e+15
tp640
(F0.116000175476074
F2.42288822530867e+15
tp641
(F0.118000030517578
F2.31677515268096e+15
tp642
(F0.119999885559082
F2.22880992749158e+15
tp643
tp644
a((F0.0
F8.41375342290534e+15
tp645
(F0.00199985504150391
F9.30701911051469e+15
tp646
(F0.00400018692016602
F1.11900444422308e+16
tp647
(F0.00600004196166992
F1.38135575692575e+16
tp648
(F0.00799989700317383
F1.69769545278423e+16
tp649
(F0.0100002288818359
F2.05265721255526e+16
tp650
(F0.0100002288818359
F2.05273989067571e+16
tp651
(F0.0120000839233398
F2.39906586707886e+16
tp652
(F0.0139999389648438
F2.79049565728932e+16
tp653
(F0.0159997940063477
F3.12991017231974e+16
tp654
(F0.0180001258850098
F3.3862980303061e+16
tp655
(F0.0199999809265137
F3.5944501843329e+16
tp656
(F0.0199999809265137
F3.59453608367882e+16
tp657
(F0.0219998359680176
F3.95517353535734e+16
tp658
(F0.0240001678466797
F4.3082280075264e+16
tp659
(F0.0260000228881836
F5.77064160848773e+16
tp660
(F0.0279998779296875
F6.17183793958093e+16
tp661
(F0.0300002098083496
F6.3610424158847e+16
tp662
(F0.0320000648498535
F5.93696980048282e+16
tp663
(F0.0320000648498535
F5.9361322818601e+16
tp664
(F0.0339999198913574
F5.4045836933333e+16
tp665
(F0.0359997749328613
F4.83410423274537e+16
tp666
(F0.0380001068115234
F4.30938206523884e+16
tp667
(F0.0399999618530273
F3.82757606994739e+16
tp668
(F0.0419998168945313
F3.35881646731428e+16
tp669
(F0.0440001487731934
F3.01427440557752e+16
tp670
(F0.0460000038146973
F2.7353688930517e+16
tp671
(F0.0479998588562012
F2.50551641676186e+16
tp672
(F0.0500001907348633
F2.30404486961562e+16
tp673
(F0.0520000457763672
F2.10262142610309e+16
tp674
(F0.0539999008178711
F1.87763793948836e+16
tp675
(F0.0560002326965332
F1.70238609394237e+16
tp676
(F0.0580000877380371
F1.58251763692995e+16
tp677
(F0.059999942779541
F1.46264917991752e+16
tp678
(F0.0619997978210449
F1.34278083027927e+16
tp679
(F0.064000129699707
F1.22352580197089e+16
tp680
(F0.0659999847412109
F1.13121578786488e+16
tp681
(F0.0679998397827148
F1.05919917210993e+16
tp682
(F0.070000171661377
F9.87129513508864e+15
tp683
(F0.0720000267028809
F9.15076283157709e+15
tp684
(F0.0739998817443848
F8.43023106493645e+15
tp685
(F0.0760002136230469
F7.79513800897331e+15
tp686
(F0.0780000686645508
F7.40420042201498e+15
tp687
(F0.0799999237060547
F6.97065944383488e+15
tp688
(F0.0819997787475586
F6.5262564933632e+15
tp689
(F0.0840001106262207
F6.08174777932186e+15
tp690
(F0.0859999656677246
F5.67909083722547e+15
tp691
(F0.0879998207092285
F5.41552802162278e+15
tp692
(F0.0900001525878906
F5.1519029289943e+15
tp693
(F0.0920000076293945
F4.88834065026253e+15
tp694
(F0.0939998626708984
F4.62477837153075e+15
tp695
(F0.0960001945495605
F4.36115274203136e+15
tp696
(F0.0980000495910645
F4.06995261718528e+15
tp697
(F0.0999999046325684
F3.77335586593178e+15
tp698
(F0.10200023651123
F3.50170401629798e+15
tp699
(F0.104000091552734
F3.37926630984909e+15
tp700
(F0.105999946594238
F3.25682940870656e+15
tp701
(F0.107999801635742
F3.13439170225766e+15
tp702
(F0.110000133514404
F3.01192527321498e+15
tp703
(F0.111999988555908
F2.88948810363699e+15
tp704
(F0.113999843597412
F2.7670503971881e+15
tp705
(F0.116000175476074
F2.64458369970995e+15
tp706
(F0.118000030517578
F2.52875675323597e+15
tp707
(F0.119999885559082
F2.43273926967296e+15
tp708
tp709
a((F0.0
F8.39520345915392e+15
tp710
(F0.00199985504150391
F9.44872081902797e+15
tp711
(F0.00400018692016602
F1.16417665538458e+16
tp712
(F0.00600004196166992
F1.46522594554675e+16
tp713
(F0.00799989700317383
F1.82193092516905e+16
tp714
(F0.0100002288818359
F2.21412564905492e+16
tp715
(F0.0100002288818359
F2.21421476962632e+16
tp716
(F0.0120000839233398
F2.58856605188096e+16
tp717
(F0.0139999389648438
F3.0102729992962e+16
tp718
(F0.0159997940063477
F3.37693908181975e+16
tp719
(F0.0180001258850098
F3.65736694550364e+16
tp720
(F0.0199999809265137
F3.89121846584279e+16
tp721
(F0.0199999809265137
F3.89131166663311e+16
tp722
(F0.0219998359680176
F4.28189126806733e+16
tp723
(F0.0240001678466797
F4.65341538809938e+16
tp724
(F0.0260000228881836
F6.15715430538936e+16
tp725
(F0.0279998779296875
F6.59692975072215e+16
tp726
(F0.0300002098083496
F6.8204153674924e+16
tp727
(F0.0320000648498535
F6.39928738166866e+16
tp728
(F0.0320000648498535
F6.39845587600015e+16
tp729
(F0.0339999198913574
F5.83496690418319e+16
tp730
(F0.0359997749328613
F5.22520567270605e+16
tp731
(F0.0380001068115234
F4.66073487136522e+16
tp732
(F0.0399999618530273
F4.14048032883999e+16
tp733
(F0.0419998168945313
F3.63349036331172e+16
tp734
(F0.0440001487731934
F3.26086028920095e+16
tp735
(F0.0460000038146973
F2.95914141363732e+16
tp736
(F0.0479998588562012
F2.71042501148672e+16
tp737
(F0.0500001907348633
F2.49246014567875e+16
tp738
(F0.0520000457763672
F2.27454724897505e+16
tp739
(F0.0539999008178711
F2.03107650513142e+16
tp740
(F0.0560002326965332
F1.84144167310459e+16
tp741
(F0.0580000877380371
F1.71176845000049e+16
tp742
(F0.059999942779541
F1.5820951195222e+16
tp743
(F0.0619997978210449
F1.45242200379228e+16
tp744
(F0.064000129699707
F1.32341074252268e+16
tp745
(F0.0659999847412109
F1.22354362608517e+16
tp746
(F0.0679998397827148
F1.14564183139287e+16
tp747
(F0.070000171661377
F1.06768334313226e+16
tp748
(F0.0720000267028809
F9.89742786360115e+15
tp749
(F0.0739998817443848
F9.11802122213786e+15
tp750
(F0.0760002136230469
F8.43104388749722e+15
tp751
(F0.0780000686645508
F8.00819523040051e+15
tp752
(F0.0799999237060547
F7.5392422468649e+15
tp753
(F0.0819997787475586
F7.05853501158195e+15
tp754
(F0.0840001106262207
F6.57771395966566e+15
tp755
(F0.0859999656677246
F6.14217045298381e+15
tp756
(F0.0879998207092285
F5.85710649422643e+15
tp757
(F0.0900001525878906
F5.57197381599232e+15
tp758
(F0.0920000076293945
F5.28690932036403e+15
tp759
(F0.0939998626708984
F5.00184482473574e+15
tp760
(F0.0960001945495605
F4.71671268337254e+15
tp761
(F0.0980000495910645
F4.40174904134861e+15
tp762
(F0.0999999046325684
F4.08094853876941e+15
tp763
(F0.10200023651123
F3.7871300944855e+15
tp764
(F0.104000091552734
F3.65470954186342e+15
tp765
(F0.105999946594238
F3.5222892576768e+15
tp766
(F0.107999801635742
F3.38986843661926e+15
tp767
(F0.110000133514404
F3.25741701391974e+15
tp768
(F0.111999988555908
F3.12499619286221e+15
tp769
(F0.113999843597412
F2.99257590867558e+15
tp770
(F0.116000175476074
F2.86012394910515e+15
tp771
(F0.118000030517578
F2.73485263798272e+15
tp772
(F0.119999885559082
F2.63100596591002e+15
tp773
tp774
a((F0.0
F8.31954224152576e+15
tp775
(F0.00199985504150391
F9.54488835801088e+15
tp776
(F0.00400018692016602
F1.20577330627215e+16
tp777
(F0.00600004196166992
F1.545367028813e+16
tp778
(F0.00799989700317383
F1.94113065577349e+16
tp779
(F0.0100002288818359
F2.36900646471598e+16
tp780
(F0.0100002288818359
F2.36910202773832e+16
tp781
(F0.0120000839233398
F2.76981925522964e+16
tp782
(F0.0139999389648438
F3.22039869079552e+16
tp783
(F0.0159997940063477
F3.61321167522365e+16
tp784
(F0.0180001258850098
F3.91672756510392e+16
tp785
(F0.0199999809265137
F4.17514415089254e+16
tp786
(F0.0199999809265137
F4.17524379413381e+16
tp787
(F0.0219998359680176
F4.59356845480346e+16
tp788
(F0.0240001678466797
F4.98194130204099e+16
tp789
(F0.0260000228881836
F6.52128893418865e+16
tp790
(F0.0279998779296875
F6.99840310720594e+16
tp791
(F0.0300002098083496
F7.25662212449894e+16
tp792
(F0.0320000648498535
F6.84277926220268e+16
tp793
(F0.0320000648498535
F6.84196192992625e+16
tp794
(F0.0339999198913574
F6.24992559898296e+16
tp795
(F0.0359997749328613
F5.60378212903813e+16
tp796
(F0.0380001068115234
F5.0017273573802e+16
tp797
(F0.0399999618530273
F4.44450517234483e+16
tp798
(F0.0419998168945313
F3.90059223196631e+16
tp799
(F0.0440001487731934
F3.50070930187223e+16
tp800
(F0.0460000038146973
F3.17684407169188e+16
tp801
(F0.0479998588562012
F2.90980383581798e+16
tp802
(F0.0500001907348633
F2.67580048838492e+16
tp803
(F0.0520000457763672
F2.44185319027507e+16
tp804
(F0.0539999008178711
F2.1804054313173e+16
tp805
(F0.0560002326965332
F1.97678210555576e+16
tp806
(F0.0580000877380371
F1.83756868634542e+16
tp807
(F0.059999942779541
F1.69835569663181e+16
tp808
(F0.0619997978210449
F1.55914227742147e+16
tp809
(F0.064000129699707
F1.42063860155679e+16
tp810
(F0.0659999847412109
F1.31341828636017e+16
tp811
(F0.0679998397827148
F1.22978872328192e+16
tp812
(F0.070000171661377
F1.14609903066153e+16
tp813
(F0.0720000267028809
F1.06242845064561e+16
tp814
(F0.0739998817443848
F9.78757978003866e+15
tp815
(F0.0760002136230469
F9.05010383054438e+15
tp816
(F0.0780000686645508
F8.59619289622118e+15
tp817
(F0.0799999237060547
F8.09277118952243e+15
tp818
(F0.0819997787475586
F7.57672711081165e+15
tp819
(F0.0840001106262207
F7.06056008866202e+15
tp820
(F0.0859999656677246
F6.59300404323942e+15
tp821
(F0.0879998207092285
F6.28700748762317e+15
tp822
(F0.0900001525878906
F5.98093791756288e+15
tp823
(F0.0920000076293945
F5.67494082507571e+15
tp824
(F0.0939998626708984
F5.36894426945946e+15
tp825
(F0.0960001945495605
F5.06287416252826e+15
tp826
(F0.0980000495910645
F4.72477809508352e+15
tp827
(F0.0999999046325684
F4.38041405974118e+15
tp828
(F0.10200023651123
F4.06501528384307e+15
tp829
(F0.104000091552734
F3.92287575710106e+15
tp830
(F0.105999946594238
F3.78073623035904e+15
tp831
(F0.107999801635742
F3.63859697205248e+15
tp832
(F0.110000133514404
F3.49642362244301e+15
tp833
(F0.111999988555908
F3.35428382726554e+15
tp834
(F0.113999843597412
F3.21214430052352e+15
tp835
(F0.116000175476074
F3.0699712193495e+15
tp836
(F0.118000030517578
F2.9355051885527e+15
tp837
(F0.119999885559082
F2.82403682857779e+15
tp838
tp839
a((F0.0
F8.20542066550374e+15
tp840
(F0.00199985504150391
F9.61191561763226e+15
tp841
(F0.00400018692016602
F1.24492225529774e+16
tp842
(F0.00600004196166992
F1.62240113273733e+16
tp843
(F0.00799989700317383
F2.05558079679365e+16
tp844
(F0.0100002288818359
F2.51745685534147e+16
tp845
(F0.0100002288818359
F2.51755821656965e+16
tp846
(F0.0120000839233398
F2.94304967441777e+16
tp847
(F0.0139999389648438
F3.42111282045911e+16
tp848
(F0.0159997940063477
F3.83894227139953e+16
tp849
(F0.0180001258850098
F4.16455233204388e+16
tp850
(F0.0199999809265137
F4.44637777808589e+16
tp851
(F0.0199999809265137
F4.44648343428137e+16
tp852
(F0.0219998359680176
F4.89059207211909e+16
tp853
(F0.0240001678466797
F5.29442551313203e+16
tp854
(F0.0260000228881836
F6.86465653711831e+16
tp855
(F0.0279998779296875
F7.3779137189249e+16
tp856
(F0.0300002098083496
F7.67113886716396e+16
tp857
(F0.0320000648498535
F7.26833192333476e+16
tp858
(F0.0320000648498535
F7.26753649539154e+16
tp859
(F0.0339999198913574
F6.65016544085934e+16
tp860
(F0.0359997749328613
F5.97043103169249e+16
tp861
(F0.0380001068115234
F5.3329114265813e+16
tp862
(F0.0399999618530273
F4.74016341955707e+16
tp863
(F0.0419998168945313
F4.16059666716426e+16
tp864
(F0.0440001487731934
F3.73425330255299e+16
tp865
(F0.0460000038146973
F3.38887393694188e+16
tp866
(F0.0479998588562012
F3.10402161269801e+16
tp867
(F0.0500001907348633
F2.85440562964726e+16
tp868
(F0.0520000457763672
F2.60484934664192e+16
tp869
(F0.0539999008178711
F2.32590432041697e+16
tp870
(F0.0560002326965332
F2.10866208285655e+16
tp871
(F0.0580000877380371
F1.96015585765622e+16
tp872
(F0.059999942779541
F1.81164984720425e+16
tp873
(F0.0619997978210449
F1.66314362200392e+16
tp874
(F0.064000129699707
F1.51539331104768e+16
tp875
(F0.0659999847412109
F1.40101060101407e+16
tp876
(F0.0679998397827148
F1.3118001574314e+16
tp877
(F0.070000171661377
F1.22252593358438e+16
tp878
(F0.0720000267028809
F1.13327221820621e+16
tp879
(F0.0739998817443848
F1.04401861020221e+16
tp880
(F0.0760002136230469
F9.65350378595942e+15
tp881
(F0.0780000686645508
F9.16932031152128e+15
tp882
(F0.0799999237060547
F8.63230659185869e+15
tp883
(F0.0819997787475586
F8.08182600223949e+15
tp884
(F0.0840001106262207
F7.53121334237594e+15
tp885
(F0.0859999656677246
F7.03246026512794e+15
tp886
(F0.0879998207092285
F6.70606046737203e+15
tp887
(F0.0900001525878906
F6.37958174959206e+15
tp888
(F0.0920000076293945
F6.05318195183616e+15
tp889
(F0.0939998626708984
F5.72678161720934e+15
tp890
(F0.0960001945495605
F5.4003039731712e+15
tp891
(F0.0980000495910645
F5.03965986429338e+15
tp892
(F0.0999999046325684
F4.6723295650775e+15
tp893
(F0.10200023651123
F4.33589645528269e+15
tp894
(F0.104000091552734
F4.18428276755661e+15
tp895
(F0.105999946594238
F4.03266934826598e+15
tp896
(F0.107999801635742
F3.88105592897536e+15
tp897
(F0.110000133514404
F3.72940680776909e+15
tp898
(F0.111999988555908
F3.57779338847846e+15
tp899
(F0.113999843597412
F3.42617996918784e+15
tp900
(F0.116000175476074
F3.27453057954611e+15
tp901
(F0.118000030517578
F3.13110229417984e+15
tp902
(F0.119999885559082
F3.01220364078285e+15
tp903
tp904
a((F0.0
F8.06811217166336e+15
tp905
(F0.00199985504150391
F9.66255220831027e+15
tp906
(F0.00400018692016602
F1.28242440648786e+16
tp907
(F0.00600004196166992
F1.6967231795626e+16
tp908
(F0.00799989700317383
F2.16546431383634e+16
tp909
(F0.0100002288818359
F2.65960201922806e+16
tp910
(F0.0100002288818359
F2.65970896391373e+16
tp911
(F0.0120000839233398
F3.10846432686899e+16
tp912
(F0.0139999389648438
F3.61265762444247e+16
tp913
(F0.0159997940063477
F4.0543765424767e+16
tp914
(F0.0180001258850098
F4.40108133499535e+16
tp915
(F0.0199999809265137
F4.70517962244096e+16
tp916
(F0.0199999809265137
F4.70529086209393e+16
tp917
(F0.0219998359680176
F5.17343370742333e+16
tp918
(F0.0240001678466797
F5.5915294463361e+16
tp919
(F0.0260000228881836
F7.18870451815711e+16
tp920
(F0.0279998779296875
F7.73695752298824e+16
tp921
(F0.0300002098083496
F8.06531378572165e+16
tp922
(F0.0320000648498535
F7.6767824541909e+16
tp923
(F0.0320000648498535
F7.67601537303183e+16
tp924
(F0.0339999198913574
F7.03634270081516e+16
tp925
(F0.0359997749328613
F6.32569397604516e+16
tp926
(F0.0380001068115234
F5.65477971171738e+16
tp927
(F0.0399999618530273
F5.02790861902316e+16
tp928
(F0.0419998168945313
F4.41392457570058e+16
tp929
(F0.0440001487731934
F3.96187712031293e+16
tp930
(F0.0460000038146973
F3.59558577368596e+16
tp931
(F0.0479998588562012
F3.29340604813148e+16
tp932
(F0.0500001907348633
F3.02857793516339e+16
tp933
(F0.0520000457763672
F2.76381317296292e+16
tp934
(F0.0539999008178711
F2.46782228053361e+16
tp935
(F0.0560002326965332
F2.23730859402854e+16
tp936
(F0.0580000877380371
F2.07974084682711e+16
tp937
(F0.059999942779541
F1.92217309962568e+16
tp938
(F0.0619997978210449
F1.76460556717261e+16
tp939
(F0.064000129699707
F1.60783904612024e+16
tp940
(F0.0659999847412109
F1.48647207501824e+16
tp941
(F0.0679998397827148
F1.39181818988462e+16
tp942
(F0.070000171661377
F1.29709665901609e+16
tp943
(F0.0720000267028809
F1.20239692510659e+16
tp944
(F0.0739998817443848
F1.10769729857126e+16
tp945
(F0.0760002136230469
F1.02422922626335e+16
tp946
(F0.0780000686645508
F9.72857229810074e+15
tp947
(F0.0799999237060547
F9.15878797796966e+15
tp948
(F0.0819997787475586
F8.5747100066775e+15
tp949
(F0.0840001106262207
F7.99049352269005e+15
tp950
(F0.0859999656677246
F7.46130362282803e+15
tp951
(F0.0879998207092285
F7.11499396730061e+15
tp952
(F0.0900001525878906
F6.76860217052365e+15
tp953
(F0.0920000076293945
F6.42229251499622e+15
tp954
(F0.0939998626708984
F6.0759828594688e+15
tp955
(F0.0960001945495605
F5.72959052582093e+15
tp956
(F0.0980000495910645
F5.34694491009843e+15
tp957
(F0.0999999046325684
F4.95720454527386e+15
tp958
(F0.10200023651123
F4.60024659207782e+15
tp959
(F0.104000091552734
F4.43938825568256e+15
tp960
(F0.105999946594238
F4.2785299192873e+15
tp961
(F0.107999801635742
F4.11767104602112e+15
tp962
(F0.110000133514404
F3.95677432335565e+15
tp963
(F0.111999988555908
F3.79591545008947e+15
tp964
(F0.113999843597412
F3.63505711369421e+15
tp965
(F0.116000175476074
F3.47415985415782e+15
tp966
(F0.118000030517578
F3.32198567319962e+15
tp967
(F0.119999885559082
F3.19583604126515e+15
tp968
tp969
a((F0.0
F7.91990895640576e+15
tp970
(F0.00199985504150391
F9.70643711039898e+15
tp971
(F0.00400018692016602
F1.31882361007636e+16
tp972
(F0.00600004196166992
F1.76856767450317e+16
tp973
(F0.00799989700317383
F2.27090361346949e+16
tp974
(F0.0100002288818359
F2.79555877948621e+16
tp975
(F0.0100002288818359
F2.79567087813263e+16
tp976
(F0.0120000839233398
F3.26626851202007e+16
tp977
(F0.0139999389648438
F3.79528435833242e+16
tp978
(F0.0159997940063477
F4.25978764837519e+16
tp979
(F0.0180001258850098
F4.6266083497214e+16
tp980
(F0.0199999809265137
F4.95188555040031e+16
tp981
(F0.0199999809265137
F4.95200237351076e+16
tp982
(F0.0219998359680176
F5.4426173467263e+16
tp983
(F0.0240001678466797
F5.87393471296307e+16
tp984
(F0.0260000228881836
F7.49474370132378e+16
tp985
(F0.0279998779296875
F8.07689215855821e+16
tp986
(F0.0300002098083496
F8.44038468974674e+16
tp987
(F0.0320000648498535
F8.06892499422413e+16
tp988
(F0.0320000648498535
F8.06819055481651e+16
tp989
(F0.0339999198913574
F7.40907027068355e+16
tp990
(F0.0359997749328613
F6.67006874880573e+16
tp991
(F0.0380001068115234
F5.96777588291011e+16
tp992
(F0.0399999618530273
F5.30814922213294e+16
tp993
(F0.0419998168945313
F4.66095348520059e+16
tp994
(F0.0440001487731934
F4.18392478203249e+16
tp995
(F0.0460000038146973
F3.79729612101386e+16
tp996
(F0.0479998588562012
F3.47825177687491e+16
tp997
(F0.0500001907348633
F3.1985884173697e+16
tp998
(F0.0520000457763672
F2.91899205935432e+16
tp999
(F0.0539999008178711
F2.60638157622477e+16
tp1000
(F0.0560002326965332
F2.36292393203139e+16
tp1001
(F0.0580000877380371
F2.19651198817403e+16
tp1002
(F0.059999942779541
F2.03010004431667e+16
tp1003
(F0.0619997978210449
F1.86368810045932e+16
tp1004
(F0.064000129699707
F1.69812183566254e+16
tp1005
(F0.0659999847412109
F1.56993842933924e+16
tp1006
(F0.0679998397827148
F1.469969629551e+16
tp1007
(F0.070000171661377
F1.36992942593147e+16
tp1008
(F0.0720000267028809
F1.26991230776115e+16
tp1009
(F0.0739998817443848
F1.16989529696502e+16
tp1010
(F0.0760002136230469
F1.08174034159534e+16
tp1011
(F0.0780000686645508
F1.02748395248026e+16
tp1012
(F0.0799999237060547
F9.67305232960717e+15
tp1013
(F0.0819997787475586
F9.05616510314086e+15
tp1014
(F0.0840001106262207
F8.43913292152832e+15
tp1015
(F0.0859999656677246
F7.88021862675251e+15
tp1016
(F0.0879998207092285
F7.51446189617971e+15
tp1017
(F0.0900001525878906
F7.14861819251917e+15
tp1018
(F0.0920000076293945
F6.78286146194637e+15
tp1019
(F0.0939998626708984
F6.41710419450266e+15
tp1020
(F0.0960001945495605
F6.05126102771302e+15
tp1021
(F0.0980000495910645
F5.64712446938317e+15
tp1022
(F0.0999999046325684
F5.23549426686362e+15
tp1023
(F0.10200023651123
F4.85848901694259e+15
tp1024
(F0.104000091552734
F4.68859943806566e+15
tp1025
(F0.105999946594238
F4.51870932231782e+15
tp1026
(F0.107999801635742
F4.34881947500544e+15
tp1027
(F0.110000133514404
F4.1788890939392e+15
tp1028
(F0.111999988555908
F4.00899924662682e+15
tp1029
(F0.113999843597412
F3.83910913087898e+15
tp1030
(F0.116000175476074
F3.66917928668365e+15
tp1031
(F0.118000030517578
F3.50846080516096e+15
tp1032
(F0.119999885559082
F3.37522850371994e+15
tp1033
tp1034
a((F0.0
F7.77051012962714e+15
tp1035
(F0.00199985504150391
F9.75060225910374e+15
tp1036
(F0.00400018692016602
F1.3544679731626e+16
tp1037
(F0.00600004196166992
F1.83806131909427e+16
tp1038
(F0.00799989700317383
F2.37198931950305e+16
tp1039
(F0.0100002288818359
F2.92544760994857e+16
tp1040
(F0.0100002288818359
F2.92556486255575e+16
tp1041
(F0.0120000839233398
F3.41667311276524e+16
tp1042
(F0.0139999389648438
F3.96925845110784e+16
tp1043
(F0.0159997940063477
F4.45547666630246e+16
tp1044
(F0.0180001258850098
F4.84146967216128e+16
tp1045
(F0.0199999809265137
F5.18688640398787e+16
tp1046
(F0.0199999809265137
F5.1870088105558e+16
tp1047
(F0.0219998359680176
F5.69869961778954e+16
tp1048
(F0.0240001678466797
F6.1423285077803e+16
tp1049
(F0.0260000228881836
F7.7839650810495e+16
tp1050
(F0.0279998779296875
F8.39895543520952e+16
tp1051
(F0.0300002098083496
F8.79748802758574e+16
tp1052
(F0.0320000648498535
F8.44550858573087e+16
tp1053
(F0.0320000648498535
F8.44481280102892e+16
tp1054
(F0.0339999198913574
F7.76892238759199e+16
tp1055
(F0.0359997749328613
F7.0040136229847e+16
tp1056
(F0.0380001068115234
F6.27230194909839e+16
tp1057
(F0.0399999618530273
F5.58125330758369e+16
tp1058
(F0.0419998168945313
F4.90202226858394e+16
tp1059
(F0.0440001487731934
F4.4007076728406e+16
tp1060
(F0.0460000038146973
F3.99429295648276e+16
tp1061
(F0.0479998588562012
F3.65882508690063e+16
tp1062
(F0.0500001907348633
F3.36468296314388e+16
tp1063
(F0.0520000457763672
F3.07061170634752e+16
tp1064
(F0.0539999008178711
F2.74178428570173e+16
tp1065
(F0.0560002326965332
F2.48569192146534e+16
tp1066
(F0.0580000877380371
F2.31064000664699e+16
tp1067
(F0.059999942779541
F2.135588306577e+16
tp1068
(F0.0619997978210449
F1.96053639175864e+16
tp1069
(F0.064000129699707
F1.78637374991892e+16
tp1070
(F0.0659999847412109
F1.65153174842245e+16
tp1071
(F0.0679998397827148
F1.54636893730898e+16
tp1072
(F0.070000171661377
F1.44113117901619e+16
tp1073
(F0.0720000267028809
F1.33591736516608e+16
tp1074
(F0.0739998817443848
F1.23070365869015e+16
tp1075
(F0.0760002136230469
F1.13796833544765e+16
tp1076
(F0.0780000686645508
F1.08089230030275e+16
tp1077
(F0.0799999237060547
F1.01758523397898e+16
tp1078
(F0.0819997787475586
F9.52689781374976e+15
tp1079
(F0.0840001106262207
F8.87778813201613e+15
tp1080
(F0.0859999656677246
F8.2898194572247e+15
tp1081
(F0.0879998207092285
F7.90504944330342e+15
tp1082
(F0.0900001525878906
F7.52018708758528e+15
tp1083
(F0.0920000076293945
F7.13541814740582e+15
tp1084
(F0.0939998626708984
F6.75064813348454e+15
tp1085
(F0.0960001945495605
F6.3657857777664e+15
tp1086
(F0.0980000495910645
F5.94063877629542e+15
tp1087
(F0.0999999046325684
F5.50760836235264e+15
tp1088
(F0.10200023651123
F5.11100356604723e+15
tp1089
(F0.104000091552734
F4.9322824606679e+15
tp1090
(F0.105999946594238
F4.7535624290304e+15
tp1091
(F0.107999801635742
F4.57484132365107e+15
tp1092
(F0.110000133514404
F4.39607861077606e+15
tp1093
(F0.111999988555908
F4.21735777383219e+15
tp1094
(F0.113999843597412
F4.03863720532378e+15
tp1095
(F0.116000175476074
F3.85987422401331e+15
tp1096
(F0.118000030517578
F3.6908020310999e+15
tp1097
(F0.119999885559082
F3.55064436332954e+15
tp1098
tp1099
aa.